

Microchip MPLAB XC8 Assembler V2.41 build 20230208172133 
                                                                                               Sun Jul 23 00:30:51 2023

Microchip MPLAB XC8 C Compiler v2.41 (Free license) build 20230208172133 Og1 
     1                           	processor	18F4620
     2                           	fnconf	rparam,??,?,0
     3                           	pagewidth 120
     4                           	opt	flic
     5                           	psect	idataCOMRAM,global,class=CODE,delta=1,noexec
     6                           	psect	idataBANK0,global,class=CODE,delta=1,noexec
     7                           	psect	smallconst,global,reloc=2,class=SMALLCONST,delta=1,noexec
     8                           	psect	cinit,global,reloc=2,class=CODE,delta=1
     9                           	psect	bssCOMRAM,global,class=COMRAM,space=1,delta=1,lowdata,noexec
    10                           	psect	dataCOMRAM,global,class=COMRAM,space=1,delta=1,lowdata,noexec
    11                           	psect	bssBANK0,global,class=BANK0,space=1,delta=1,lowdata,noexec
    12                           	psect	dataBANK0,global,class=BANK0,space=1,delta=1,lowdata,noexec
    13                           	psect	cstackBANK0,global,class=BANK0,space=1,delta=1,lowdata,noexec
    14                           	psect	cstackCOMRAM,global,class=COMRAM,space=1,delta=1,lowdata,noexec
    15                           	psect	text0,global,reloc=2,class=CODE,delta=1
    16                           	psect	text1,global,reloc=2,class=CODE,delta=1
    17                           	psect	text2,global,reloc=2,class=CODE,delta=1
    18                           	psect	text3,global,reloc=2,class=CODE,delta=1
    19                           	psect	text4,global,reloc=2,class=CODE,delta=1
    20                           	psect	text5,global,reloc=2,class=CODE,delta=1
    21                           	psect	text6,global,reloc=2,class=CODE,delta=1
    22                           	psect	text7,global,reloc=2,class=CODE,delta=1
    23                           	psect	text8,global,reloc=2,class=CODE,delta=1
    24                           	psect	text9,global,reloc=2,class=CODE,delta=1
    25                           	psect	text10,global,reloc=2,class=CODE,delta=1
    26                           	psect	text11,global,reloc=2,class=CODE,delta=1
    27                           	psect	text12,global,reloc=2,class=CODE,delta=1
    28                           	psect	text13,global,reloc=2,class=CODE,delta=1
    29                           	psect	intcode,global,reloc=2,class=CODE,delta=1
    30                           	psect	intcode_body,global,reloc=2,class=CODE,delta=1
    31                           	psect	text15,global,reloc=2,class=CODE,delta=1
    32                           	psect	text16,global,reloc=2,class=CODE,delta=1
    33                           	psect	text17,global,reloc=2,class=CODE,delta=1
    34                           	psect	text18,global,reloc=2,class=CODE,delta=1
    35                           	psect	text19,global,reloc=2,class=CODE,delta=1
    36                           	psect	text20,global,reloc=2,class=CODE,delta=1
    37                           	psect	text21,global,reloc=2,class=CODE,delta=1
    38                           	psect	text22,global,reloc=2,class=CODE,delta=1
    39                           	psect	text23,global,reloc=2,class=CODE,delta=1
    40                           	psect	text24,global,reloc=2,class=CODE,delta=1
    41                           	psect	text25,global,reloc=2,class=CODE,delta=1
    42                           	psect	text26,global,reloc=2,class=CODE,delta=1
    43                           	psect	text27,global,reloc=2,class=CODE,delta=1
    44                           	psect	text28,global,reloc=2,class=CODE,delta=1
    45                           	psect	text29,global,reloc=2,class=CODE,delta=1
    46                           	psect	text30,global,reloc=2,class=CODE,delta=1
    47                           	psect	text31,global,reloc=2,class=CODE,delta=1
    48                           	psect	text32,global,reloc=2,class=CODE,delta=1
    49                           	psect	text33,global,reloc=2,class=CODE,delta=1
    50                           	psect	intsave_regs,global,class=BIGRAM,space=1,delta=1,noexec
    51                           	psect	text34,global,reloc=2,class=CODE,delta=1
    52                           	psect	rparam,global,class=COMRAM,space=1,delta=1,noexec
    53                           	psect	temp,global,ovrld,common,class=COMRAM,space=1,delta=1
    54                           	psect	idloc,global,abs,ovrld,class=IDLOC,space=5,delta=1,noexec
    55                           	psect	config,global,abs,ovrld,class=CONFIG,space=4,delta=1,noexec
    56   000000                     
    57                           ; Generated 09/02/2023 GMT
    58                           ; 
    59                           ; Copyright © 2023, Microchip Technology Inc. and its subsidiaries ("Microchip")
    60                           ; All rights reserved.
    61                           ; 
    62                           ; This software is developed by Microchip Technology Inc. and its subsidiaries ("Microch
      +                          ip").
    63                           ; 
    64                           ; Redistribution and use in source and binary forms, with or without modification, are
    65                           ; permitted provided that the following conditions are met:
    66                           ; 
    67                           ;     1. Redistributions of source code must retain the above copyright notice, this lis
      +                          t of
    68                           ;        conditions and the following disclaimer.
    69                           ; 
    70                           ;     2. Redistributions in binary form must reproduce the above copyright notice, this 
      +                          list
    71                           ;        of conditions and the following disclaimer in the documentation and/or other
    72                           ;        materials provided with the distribution. Publication is not required when
    73                           ;        this file is used in an embedded application.
    74                           ; 
    75                           ;     3. Microchip's name may not be used to endorse or promote products derived from th
      +                          is
    76                           ;        software without specific prior written permission.
    77                           ; 
    78                           ; THIS SOFTWARE IS PROVIDED BY MICROCHIP "AS IS" AND ANY EXPRESS OR IMPLIED WARRANTIES,
    79                           ; INCLUDING, BUT NOT LIMITED TO, THE IMPLIED WARRANTIES OF MERCHANTABILITY AND FITNESS F
      +                          OR
    80                           ; PURPOSE ARE DISCLAIMED.  IN NO EVENT SHALL MICROCHIP BE LIABLE FOR ANY DIRECT, INDIREC
      +                          T,
    81                           ; INCIDENTAL, SPECIAL, EXEMPLARY, OR CONSEQUENTIAL DAMAGES (INCLUDING BUT NOT LIMITED TO
    82                           ; PROCUREMENT OF SUBSTITUTE GOODS OR SERVICES; LOSS OF USE, DATA OR PROFITS; OR BUSINESS
    83                           ; INTERRUPTION) HOWSOEVER CAUSED AND ON ANY THEORY OF LIABILITY, WHETHER IN CONTRACT, ST
      +                          RICT
    84                           ; LIABILITY, OR TORT (INCLUDING NEGLIGENCE OR OTHERWISE) ARISING IN ANY WAY OUT OF THE U
      +                          SE OF
    85                           ; THIS SOFTWARE, EVEN IF ADVISED OF THE POSSIBILITY OF SUCH DAMAGE.
    86                           ; 
    87                           ; 
    88                           ; Code-generator required, PIC18F4620 Definitions
    89                           ; 
    90                           ; SFR Addresses
    91   000000                     
    92                           	psect	idataCOMRAM
    93   001D1C                     __pidataCOMRAM:
    94                           	callstack 0
    95                           
    96                           ;initializer for _lat_registers
    97   001D1C  89                 	db	137
    98   001D1D  0F                 	db	15
    99   001D1E  8A                 	db	138
   100   001D1F  0F                 	db	15
   101   001D20  8B                 	db	139
   102   001D21  0F                 	db	15
   103   001D22  8C                 	db	140
   104   001D23  0F                 	db	15
   105   001D24  8D                 	db	141
   106   001D25  0F                 	db	15
   107                           
   108                           ;initializer for _tris_registers
   109   001D26  92                 	db	146
   110   001D27  0F                 	db	15
   111   001D28  93                 	db	147
   112   001D29  0F                 	db	15
   113   001D2A  94                 	db	148
   114   001D2B  0F                 	db	15
   115   001D2C  95                 	db	149
   116   001D2D  0F                 	db	15
   117   001D2E  96                 	db	150
   118   001D2F  0F                 	db	15
   119                           
   120                           ;initializer for _RB7_Flag
   121   001D30  01                 	db	1
   122                           
   123                           ;initializer for _RB6_Flag
   124   001D31  01                 	db	1
   125                           
   126                           ;initializer for _RB5_Flag
   127   001D32  01                 	db	1
   128                           
   129                           ;initializer for _RB4_Flag
   130   001D33  01                 	db	1
   131                           
   132                           	psect	idataBANK0
   133   001C80                     __pidataBANK0:
   134                           	callstack 0
   135                           
   136                           ;initializer for _port_registers
   137   001C80  80                 	db	128
   138   001C81  0F                 	db	15
   139   001C82  81                 	db	129
   140   001C83  0F                 	db	15
   141   001C84  82                 	db	130
   142   001C85  0F                 	db	15
   143   001C86  83                 	db	131
   144   001C87  0F                 	db	15
   145   001C88  84                 	db	132
   146   001C89  0F                 	db	15
   147                           
   148                           ;initializer for _lcd_2
   149   001C8A  32                 	db	50
   150   001C8B  3A                 	db	58
   151   001C8C  03                 	db	3
   152   001C8D  0B                 	db	11
   153   001C8E  13                 	db	19
   154   001C8F  1B                 	db	27
   155   001C90  23                 	db	35
   156   001C91  2B                 	db	43
   157   001C92  33                 	db	51
   158   001C93  3B                 	db	59
   159                           
   160                           ;initializer for _lcd_1
   161   001C94  02                 	db	2
   162   001C95  0A                 	db	10
   163   001C96  12                 	db	18
   164   001C97  1A                 	db	26
   165   001C98  22                 	db	34
   166   001C99  2A                 	db	42
   167                           
   168                           	psect	smallconst
   169   001000                     __psmallconst:
   170                           	callstack 0
   171   001000  00                 	db	0
   172   001001                     _btn_values:
   173                           	callstack 0
   174   001001  37                 	db	55
   175   001002  38                 	db	56
   176   001003  39                 	db	57
   177   001004  2F                 	db	47
   178   001005  34                 	db	52
   179   001006  35                 	db	53
   180   001007  36                 	db	54
   181   001008  2A                 	db	42
   182   001009  31                 	db	49
   183   00100A  32                 	db	50
   184   00100B  33                 	db	51
   185   00100C  2D                 	db	45
   186   00100D  23                 	db	35
   187   00100E  30                 	db	48
   188   00100F  3D                 	db	61
   189   001010  2B                 	db	43
   190   001011                     __end_of_btn_values:
   191                           	callstack 0
   192   000000                     _SPBRGH	set	4016
   193   000000                     _SPBRG	set	4015
   194   000000                     _TXREG	set	4013
   195   000000                     _TXSTAbits	set	4012
   196   000000                     _RCREG	set	4014
   197   000000                     _RCSTAbits	set	4011
   198   000000                     _TMR3L	set	4018
   199   000000                     _TMR3H	set	4019
   200   000000                     _TMR1L	set	4046
   201   000000                     _TMR1H	set	4047
   202   000000                     _TMR0L	set	4054
   203   000000                     _TMR0H	set	4055
   204   000000                     _INTCON2bits	set	4081
   205   000000                     _SSPSTATbits	set	4039
   206   000000                     _SSPADD	set	4040
   207   000000                     _SSPCON2bits	set	4037
   208   000000                     _SSPCON1bits	set	4038
   209   000000                     _EECON2	set	4007
   210   000000                     _CCPR2H	set	4028
   211   000000                     _CCPR2L	set	4027
   212   000000                     _CCPR1H	set	4031
   213   000000                     _CCPR1L	set	4030
   214   000000                     _ADCON1bits	set	4033
   215   000000                     _ADRESL	set	4035
   216   000000                     _ADRESH	set	4036
   217   000000                     _INTCONbits	set	4082
   218   000000                     _TRISD	set	3989
   219   000000                     _TRISC	set	3988
   220   000000                     _TRISB	set	3987
   221   000000                     _TRISE	set	3990
   222   000000                     _PORTBbits	set	3969
   223   000000                     _TRISCbits	set	3988
   224   000000                     _PIE1bits	set	3997
   225   000000                     _ADCON2bits	set	4032
   226   000000                     _ADCON0bits	set	4034
   227   000000                     _PORTE	set	3972
   228   000000                     _PORTD	set	3971
   229   000000                     _PORTC	set	3970
   230   000000                     _PORTB	set	3969
   231   000000                     _PORTA	set	3968
   232   000000                     _LATA	set	3977
   233   000000                     _TRISA	set	3986
   234   000000                     _PIE2bits	set	4000
   235   000000                     _CCP2CONbits	set	4026
   236   000000                     _CCP1CONbits	set	4029
   237   000000                     _PIR1bits	set	3998
   238   000000                     _EECON1bits	set	4006
   239   000000                     _EEDATA	set	4008
   240   000000                     _EEADR	set	4009
   241   000000                     _EEADRH	set	4010
   242   000000                     _T3CONbits	set	4017
   243   000000                     _PIR2bits	set	4001
   244   000000                     _LATE	set	3981
   245   000000                     _LATD	set	3980
   246   000000                     _LATC	set	3979
   247   000000                     _LATB	set	3978
   248   000000                     _TMR2	set	4044
   249   000000                     _T2CONbits	set	4042
   250   000000                     _T1CONbits	set	4045
   251   000000                     _T0CONbits	set	4053
   252   000000                     _INTCON3bits	set	4080
   253   000000                     _SSPBUF	set	4041
   254   000000                     _BAUDCONbits	set	4024
   255   001011                     STR_1:
   256   001011  25                 	db	37
   257   001012  69                 	db	105	;'i'
   258   001013  00                 	db	0
   259   001014  00                 	db	0	; dummy byte at the end
   260   000000                     
   261                           ; #config settings
   262                           
   263                           	psect	cinit
   264   001B50                     __pcinit:
   265                           	callstack 0
   266   001B50                     start_initialization:
   267                           	callstack 0
   268   001B50                     __initialization:
   269                           	callstack 0
   270                           
   271                           ; Initialize objects allocated to BANK0 (26 bytes)
   272                           ; load TBLPTR registers with __pidataBANK0
   273   001B50  0E80               	movlw	low __pidataBANK0
   274   001B52  6EF6               	movwf	tblptrl,c
   275   001B54  0E1C               	movlw	high __pidataBANK0
   276   001B56  6EF7               	movwf	tblptrh,c
   277   001B58  0E00               	movlw	low (__pidataBANK0 shr (0+16))
   278   001B5A  6EF8               	movwf	tblptru,c
   279   001B5C  EE00  F080         	lfsr	0,__pdataBANK0
   280   001B60  EE10 F01A          	lfsr	1,26
   281   001B64                     copy_data0:
   282   001B64  0009               	tblrd		*+
   283   001B66  CFF5 FFEE          	movff	tablat,postinc0
   284   001B6A  50E5               	movf	postdec1,w,c
   285   001B6C  50E1               	movf	fsr1l,w,c
   286   001B6E  E1FA               	bnz	copy_data0
   287                           
   288                           ; Initialize objects allocated to COMRAM (24 bytes)
   289                           ; load TBLPTR registers with __pidataCOMRAM
   290   001B70  0E1C               	movlw	low __pidataCOMRAM
   291   001B72  6EF6               	movwf	tblptrl,c
   292   001B74  0E1D               	movlw	high __pidataCOMRAM
   293   001B76  6EF7               	movwf	tblptrh,c
   294   001B78  0E00               	movlw	low (__pidataCOMRAM shr (0+16))
   295   001B7A  6EF8               	movwf	tblptru,c
   296   001B7C  EE00  F063         	lfsr	0,__pdataCOMRAM
   297   001B80  EE10 F018          	lfsr	1,24
   298   001B84                     copy_data1:
   299   001B84  0009               	tblrd		*+
   300   001B86  CFF5 FFEE          	movff	tablat,postinc0
   301   001B8A  50E5               	movf	postdec1,w,c
   302   001B8C  50E1               	movf	fsr1l,w,c
   303   001B8E  E1FA               	bnz	copy_data1
   304                           
   305                           ; Clear objects allocated to BANK0 (10 bytes)
   306   001B90  EE00  F09A         	lfsr	0,__pbssBANK0
   307   001B94  0E0A               	movlw	10
   308   001B96                     clear_0:
   309   001B96  6AEE               	clrf	postinc0,c
   310   001B98  06E8               	decf	wreg,f,c
   311   001B9A  E1FD               	bnz	clear_0
   312                           
   313                           ; Clear objects allocated to COMRAM (71 bytes)
   314   001B9C  EE00  F001         	lfsr	0,__pbssCOMRAM
   315   001BA0  0E47               	movlw	71
   316   001BA2                     clear_1:
   317   001BA2  6AEE               	clrf	postinc0,c
   318   001BA4  06E8               	decf	wreg,f,c
   319   001BA6  E1FD               	bnz	clear_1
   320   001BA8                     end_of_initialization:
   321                           	callstack 0
   322   001BA8                     __end_of__initialization:
   323                           	callstack 0
   324   001BA8  907B               	bcf	int$flags,0,c	;clear compiler interrupt flag (level 1)
   325   001BAA  927B               	bcf	int$flags,1,c	;clear compiler interrupt flag (level 2)
   326   001BAC  0100               	movlb	0
   327   001BAE  EF28  F00E         	goto	_main	;jump to C main() function
   328                           
   329                           	psect	bssCOMRAM
   330   000001                     __pbssCOMRAM:
   331                           	callstack 0
   332   000001                     _USART_OverrunErrorHandler:
   333                           	callstack 0
   334   000001                     	ds	2
   335   000003                     _USART_FramingErrorHandler:
   336                           	callstack 0
   337   000003                     	ds	2
   338   000005                     _USART_RxDefaultInterruptHandler:
   339                           	callstack 0
   340   000005                     	ds	2
   341   000007                     _USART_TxDefaultInterruptHandler:
   342                           	callstack 0
   343   000007                     	ds	2
   344   000009                     _TMR3_InterruptHandler:
   345                           	callstack 0
   346   000009                     	ds	2
   347   00000B                     _timer3_preload:
   348                           	callstack 0
   349   00000B                     	ds	2
   350   00000D                     _TMR2_InterruptHandler:
   351                           	callstack 0
   352   00000D                     	ds	2
   353   00000F                     _TMR1_InterruptHandler:
   354                           	callstack 0
   355   00000F                     	ds	2
   356   000011                     _timer1_preload:
   357                           	callstack 0
   358   000011                     	ds	2
   359   000013                     _TMR0_InterruptHandler:
   360                           	callstack 0
   361   000013                     	ds	2
   362   000015                     _timer0_preload:
   363                           	callstack 0
   364   000015                     	ds	2
   365   000017                     _RB7_InterruptHandler_LOW:
   366                           	callstack 0
   367   000017                     	ds	2
   368   000019                     _RB7_InterruptHandler_HIGH:
   369                           	callstack 0
   370   000019                     	ds	2
   371   00001B                     _RB6_InterruptHandler_LOW:
   372                           	callstack 0
   373   00001B                     	ds	2
   374   00001D                     _RB6_InterruptHandler_HIGH:
   375                           	callstack 0
   376   00001D                     	ds	2
   377   00001F                     _RB5_InterruptHandler_LOW:
   378                           	callstack 0
   379   00001F                     	ds	2
   380   000021                     _RB5_InterruptHandler_HIGH:
   381                           	callstack 0
   382   000021                     	ds	2
   383   000023                     _RB4_InterruptHandler_LOW:
   384                           	callstack 0
   385   000023                     	ds	2
   386   000025                     _RB4_InterruptHandler_HIGH:
   387                           	callstack 0
   388   000025                     	ds	2
   389   000027                     _INT2_InterruptHandler:
   390                           	callstack 0
   391   000027                     	ds	2
   392   000029                     _INT1_InterruptHandler:
   393                           	callstack 0
   394   000029                     	ds	2
   395   00002B                     _INT0_InterruptHandler:
   396                           	callstack 0
   397   00002B                     	ds	2
   398   00002D                     _MSSP_I2C_Report_Receive_Overflow_InterruptHandler:
   399                           	callstack 0
   400   00002D                     	ds	2
   401   00002F                     _MSSP_I2C_Report_Write_Collision_InterruptHandler:
   402                           	callstack 0
   403   00002F                     	ds	2
   404   000031                     _MSSP_I2C_DefaultInterruptHandler:
   405                           	callstack 0
   406   000031                     	ds	2
   407   000033                     CCP_Set_Compare_Mode_Value@F3106:
   408                           	callstack 0
   409   000033                     	ds	2
   410   000035                     _CCP2_InterruptHandler:
   411                           	callstack 0
   412   000035                     	ds	2
   413   000037                     _CCP1_InterruptHandler:
   414                           	callstack 0
   415   000037                     	ds	2
   416   000039                     _ADC_InterruptHandler:
   417                           	callstack 0
   418   000039                     	ds	2
   419   00003B                     _timer2_preload:
   420                           	callstack 0
   421   00003B                     	ds	1
   422   00003C                     relay_turn_off@F3052:
   423                           	callstack 0
   424   00003C                     	ds	1
   425   00003D                     relay_turn_on@F3047:
   426                           	callstack 0
   427   00003D                     	ds	1
   428   00003E                     relay_initialize@F3042:
   429                           	callstack 0
   430   00003E                     	ds	1
   431   00003F                     led_turn_toggle@F3063:
   432                           	callstack 0
   433   00003F                     	ds	1
   434   000040                     led_turn_off@F3058:
   435                           	callstack 0
   436   000040                     	ds	1
   437   000041                     led_turn_on@F3053:
   438                           	callstack 0
   439   000041                     	ds	1
   440   000042                     led_initialize@F3048:
   441                           	callstack 0
   442   000042                     	ds	1
   443   000043                     _timer2_obj:
   444                           	callstack 0
   445   000043                     	ds	5
   446                           
   447                           	psect	dataCOMRAM
   448   000063                     __pdataCOMRAM:
   449                           	callstack 0
   450   000063                     _lat_registers:
   451                           	callstack 0
   452   000063                     	ds	10
   453   00006D                     _tris_registers:
   454                           	callstack 0
   455   00006D                     	ds	10
   456   000077                     _RB7_Flag:
   457                           	callstack 0
   458   000077                     	ds	1
   459   000078                     _RB6_Flag:
   460                           	callstack 0
   461   000078                     	ds	1
   462   000079                     _RB5_Flag:
   463                           	callstack 0
   464   000079                     	ds	1
   465   00007A                     _RB4_Flag:
   466                           	callstack 0
   467   00007A                     	ds	1
   468                           
   469                           	psect	bssBANK0
   470   00009A                     __pbssBANK0:
   471                           	callstack 0
   472   00009A                     	ds	6
   473   0000A0                     _timer2_flag:
   474                           	callstack 0
   475   0000A0                     	ds	4
   476                           
   477                           	psect	dataBANK0
   478   000080                     __pdataBANK0:
   479                           	callstack 0
   480   000080                     _port_registers:
   481                           	callstack 0
   482   000080                     	ds	10
   483   00008A                     _lcd_2:
   484                           	callstack 0
   485   00008A                     	ds	10
   486   000094                     _lcd_1:
   487                           	callstack 0
   488   000094                     	ds	6
   489                           
   490                           	psect	cstackBANK0
   491   0000A4                     __pcstackBANK0:
   492                           	callstack 0
   493   0000A4                     ??_lcd_8bit_intialize:
   494                           
   495                           ; 1 bytes @ 0x0
   496   0000A4                     	ds	2
   497   0000A6                     lcd_8bit_intialize@l_data_pins_counter:
   498                           	callstack 0
   499                           
   500                           ; 1 bytes @ 0x2
   501   0000A6                     	ds	1
   502   0000A7                     lcd_8bit_intialize@ret:
   503                           	callstack 0
   504                           
   505                           ; 1 bytes @ 0x3
   506   0000A7                     	ds	1
   507                           
   508                           	psect	cstackCOMRAM
   509   000048                     __pcstackCOMRAM:
   510                           	callstack 0
   511   000048                     RB4_ISR@RB4_Source:
   512                           	callstack 0
   513   000048                     RB5_ISR@RB5_Source:
   514                           	callstack 0
   515   000048                     RB6_ISR@RB6_Source:
   516                           	callstack 0
   517   000048                     RB7_ISR@RB7_Source:
   518                           	callstack 0
   519                           
   520                           ; 1 bytes @ 0x0
   521   000048                     	ds	1
   522   000049                     ??_InterruptManager:
   523                           
   524                           ; 1 bytes @ 0x1
   525   000049                     	ds	2
   526   00004B                     gpio_pin_direction_intialize@_pin_config:
   527                           	callstack 0
   528   00004B                     gpio_pin_write_logic@_pin_config:
   529                           	callstack 0
   530   00004B                     Timer2_Init@_timer:
   531                           	callstack 0
   532                           
   533                           ; 2 bytes @ 0x3
   534   00004B                     	ds	2
   535   00004D                     ??_gpio_pin_direction_intialize:
   536   00004D                     ??_Timer2_Init:
   537   00004D                     gpio_pin_write_logic@logic:
   538                           	callstack 0
   539                           
   540                           ; 1 bytes @ 0x5
   541   00004D                     	ds	1
   542   00004E                     ??_gpio_pin_write_logic:
   543   00004E                     Timer2_Init@ret:
   544                           	callstack 0
   545                           
   546                           ; 1 bytes @ 0x6
   547   00004E                     	ds	5
   548   000053                     gpio_pin_direction_intialize@ret:
   549                           	callstack 0
   550                           
   551                           ; 1 bytes @ 0xB
   552   000053                     	ds	1
   553   000054                     gpio_pin_write_logic@ret:
   554                           	callstack 0
   555                           
   556                           ; 1 bytes @ 0xC
   557   000054                     	ds	1
   558   000055                     lcd_send_4bits@lcd:
   559                           	callstack 0
   560   000055                     lcd_4bit_send_enable_signal@lcd:
   561                           	callstack 0
   562   000055                     lcd_8bit_send_enable_signal@lcd:
   563                           	callstack 0
   564   000055                     gpio_pin_intialize@_pin_config:
   565                           	callstack 0
   566                           
   567                           ; 2 bytes @ 0xD
   568   000055                     	ds	2
   569   000057                     ??_gpio_pin_intialize:
   570   000057                     lcd_send_4bits@_data_command:
   571                           	callstack 0
   572   000057                     lcd_4bit_send_enable_signal@ret:
   573                           	callstack 0
   574   000057                     lcd_8bit_send_enable_signal@ret:
   575                           	callstack 0
   576                           
   577                           ; 1 bytes @ 0xF
   578   000057                     	ds	1
   579   000058                     lcd_send_4bits@ret:
   580                           	callstack 0
   581   000058                     gpio_pin_intialize@ret:
   582                           	callstack 0
   583   000058                     lcd_8bit_send_command@lcd:
   584                           	callstack 0
   585                           
   586                           ; 2 bytes @ 0x10
   587   000058                     	ds	1
   588   000059                     lcd_4bit_send_command@lcd:
   589                           	callstack 0
   590                           
   591                           ; 2 bytes @ 0x11
   592   000059                     	ds	1
   593   00005A                     lcd_8bit_send_command@command:
   594                           	callstack 0
   595                           
   596                           ; 1 bytes @ 0x12
   597   00005A                     	ds	1
   598   00005B                     ??_lcd_8bit_send_command:
   599   00005B                     lcd_4bit_send_command@command:
   600                           	callstack 0
   601                           
   602                           ; 1 bytes @ 0x13
   603   00005B                     	ds	1
   604   00005C                     lcd_4bit_send_command@ret:
   605                           	callstack 0
   606                           
   607                           ; 1 bytes @ 0x14
   608   00005C                     	ds	1
   609   00005D                     lcd_4bit_intialize@lcd:
   610                           	callstack 0
   611                           
   612                           ; 2 bytes @ 0x15
   613   00005D                     	ds	2
   614   00005F                     ??_lcd_4bit_intialize:
   615   00005F                     lcd_8bit_send_command@ret:
   616                           	callstack 0
   617                           
   618                           ; 1 bytes @ 0x17
   619   00005F                     	ds	1
   620   000060                     lcd_8bit_send_command@l_pin_counter:
   621                           	callstack 0
   622                           
   623                           ; 1 bytes @ 0x18
   624   000060                     	ds	1
   625   000061                     lcd_4bit_intialize@l_data_pins_counter:
   626                           	callstack 0
   627   000061                     lcd_8bit_intialize@lcd:
   628                           	callstack 0
   629                           
   630                           ; 2 bytes @ 0x19
   631   000061                     	ds	1
   632   000062                     lcd_4bit_intialize@ret:
   633                           	callstack 0
   634                           
   635                           ; 1 bytes @ 0x1A
   636   000062                     	ds	1
   637   000063                     
   638                           ; 1 bytes @ 0x1B
   639 ;;
   640 ;;Main: autosize = 0, tempsize = 0, incstack = 0, save=0
   641 ;;
   642 ;; *************** function _main *****************
   643 ;; Defined at:
   644 ;;		line 26 in file "application.c"
   645 ;; Parameters:    Size  Location     Type
   646 ;;		None
   647 ;; Auto vars:     Size  Location     Type
   648 ;;  ret             1    0        unsigned char 
   649 ;; Return value:  Size  Location     Type
   650 ;;                  2  1570[None  ] int 
   651 ;; Registers used:
   652 ;;		wreg, fsr2l, fsr2h, status,2, status,0, prodl, prodh, cstack
   653 ;; Tracked objects:
   654 ;;		On entry : 0/0
   655 ;;		On exit  : 0/0
   656 ;;		Unchanged: 0/0
   657 ;; Data sizes:     COMRAM   BANK0   BANK1   BANK2   BANK3   BANK4   BANK5   BANK6   BANK7   BANK8   BANK9  BANK10  BANK1
      +1  BANK12  BANK13  BANK14  BANK15
   658 ;;      Params:         0       0       0       0       0       0       0       0       0       0       0       0       
      +0       0       0       0       0
   659 ;;      Locals:         0       0       0       0       0       0       0       0       0       0       0       0       
      +0       0       0       0       0
   660 ;;      Temps:          0       0       0       0       0       0       0       0       0       0       0       0       
      +0       0       0       0       0
   661 ;;      Totals:         0       0       0       0       0       0       0       0       0       0       0       0       
      +0       0       0       0       0
   662 ;;Total ram usage:        0 bytes
   663 ;; Hardware stack levels required when called: 9
   664 ;; This function calls:
   665 ;;		_Timer2_Init
   666 ;;		_application_intialize
   667 ;; This function is called by:
   668 ;;		Startup code after reset
   669 ;; This function uses a non-reentrant model
   670 ;;
   671                           
   672                           	psect	text0
   673   001C50                     __ptext0:
   674                           	callstack 0
   675   001C50                     _main:
   676                           	callstack 22
   677   001C50                     
   678                           ;application.c: 29:     application_intialize();
   679   001C50  ECB4  F00E         	call	_application_intialize	;wreg free
   680   001C54                     
   681                           ;application.c: 31:     timer2_obj.TMR2_InterruptHandler = Timer2_DefaultInterrruptHandl
      +                          er;
   682   001C54  0E34               	movlw	low _Timer2_DefaultInterrruptHandler
   683   001C56  6E43               	movwf	_timer2_obj^0,c
   684   001C58  0E1D               	movlw	high _Timer2_DefaultInterrruptHandler
   685   001C5A  6E44               	movwf	(_timer2_obj+1)^0,c
   686   001C5C                     
   687                           ;application.c: 32:     timer2_obj.priority = INTERRUPT_LOW_PRIORITY;
   688   001C5C  0E00               	movlw	0
   689   001C5E  6E45               	movwf	(_timer2_obj+2)^0,c
   690   001C60                     
   691                           ;application.c: 33:     timer2_obj.timer2_prescaler_value = 0;
   692   001C60  0ECF               	movlw	-49
   693   001C62  1647               	andwf	(_timer2_obj+4)^0,f,c
   694   001C64                     
   695                           ;application.c: 34:     timer2_obj.timer2_postscaler_value = 15;
   696   001C64  0E0F               	movlw	15
   697   001C66  1247               	iorwf	(_timer2_obj+4)^0,f,c
   698   001C68                     
   699                           ;application.c: 35:     timer2_obj.timer2_preload_value = 249;
   700   001C68  0EF9               	movlw	249
   701   001C6A  6E46               	movwf	(_timer2_obj+3)^0,c
   702   001C6C  0E43               	movlw	low _timer2_obj
   703   001C6E  6E4B               	movwf	Timer2_Init@_timer^0,c
   704   001C70  0E00               	movlw	high _timer2_obj
   705   001C72  6E4C               	movwf	(Timer2_Init@_timer+1)^0,c
   706   001C74  EC6F  F00C         	call	_Timer2_Init	;wreg free
   707   001C78                     l1571:
   708   001C78  EF3C  F00E         	goto	l1571
   709   001C7C  EF07  F000         	goto	start
   710   001C80                     __end_of_main:
   711                           	callstack 0
   712                           
   713 ;; *************** function _application_intialize *****************
   714 ;; Defined at:
   715 ;;		line 46 in file "application.c"
   716 ;; Parameters:    Size  Location     Type
   717 ;;		None
   718 ;; Auto vars:     Size  Location     Type
   719 ;;  ret             1    0        unsigned char 
   720 ;; Return value:  Size  Location     Type
   721 ;;                  1    wreg      void 
   722 ;; Registers used:
   723 ;;		wreg, fsr2l, fsr2h, status,2, status,0, prodl, prodh, cstack
   724 ;; Tracked objects:
   725 ;;		On entry : 0/0
   726 ;;		On exit  : 0/0
   727 ;;		Unchanged: 0/0
   728 ;; Data sizes:     COMRAM   BANK0   BANK1   BANK2   BANK3   BANK4   BANK5   BANK6   BANK7   BANK8   BANK9  BANK10  BANK1
      +1  BANK12  BANK13  BANK14  BANK15
   729 ;;      Params:         0       0       0       0       0       0       0       0       0       0       0       0       
      +0       0       0       0       0
   730 ;;      Locals:         0       0       0       0       0       0       0       0       0       0       0       0       
      +0       0       0       0       0
   731 ;;      Temps:          0       0       0       0       0       0       0       0       0       0       0       0       
      +0       0       0       0       0
   732 ;;      Totals:         0       0       0       0       0       0       0       0       0       0       0       0       
      +0       0       0       0       0
   733 ;;Total ram usage:        0 bytes
   734 ;; Hardware stack levels used: 1
   735 ;; Hardware stack levels required when called: 8
   736 ;; This function calls:
   737 ;;		_ecu_layer_intialize
   738 ;; This function is called by:
   739 ;;		_main
   740 ;; This function uses a non-reentrant model
   741 ;;
   742                           
   743                           	psect	text1
   744   001D68                     __ptext1:
   745                           	callstack 0
   746   001D68                     _application_intialize:
   747                           	callstack 22
   748   001D68                     
   749                           ;application.c: 49:     ecu_layer_intialize();
   750   001D68  EC4D  F00E         	call	_ecu_layer_intialize	;wreg free
   751   001D6C  0012               	return		;funcret
   752   001D6E                     __end_of_application_intialize:
   753                           	callstack 0
   754                           
   755 ;; *************** function _ecu_layer_intialize *****************
   756 ;; Defined at:
   757 ;;		line 96 in file "ECU_Layer/ecu_layer_init.c"
   758 ;; Parameters:    Size  Location     Type
   759 ;;		None
   760 ;; Auto vars:     Size  Location     Type
   761 ;;  ret             1    0        unsigned char 
   762 ;; Return value:  Size  Location     Type
   763 ;;                  1    wreg      void 
   764 ;; Registers used:
   765 ;;		wreg, fsr2l, fsr2h, status,2, status,0, prodl, prodh, cstack
   766 ;; Tracked objects:
   767 ;;		On entry : 0/0
   768 ;;		On exit  : 0/0
   769 ;;		Unchanged: 0/0
   770 ;; Data sizes:     COMRAM   BANK0   BANK1   BANK2   BANK3   BANK4   BANK5   BANK6   BANK7   BANK8   BANK9  BANK10  BANK1
      +1  BANK12  BANK13  BANK14  BANK15
   771 ;;      Params:         0       0       0       0       0       0       0       0       0       0       0       0       
      +0       0       0       0       0
   772 ;;      Locals:         0       0       0       0       0       0       0       0       0       0       0       0       
      +0       0       0       0       0
   773 ;;      Temps:          0       0       0       0       0       0       0       0       0       0       0       0       
      +0       0       0       0       0
   774 ;;      Totals:         0       0       0       0       0       0       0       0       0       0       0       0       
      +0       0       0       0       0
   775 ;;Total ram usage:        0 bytes
   776 ;; Hardware stack levels used: 1
   777 ;; Hardware stack levels required when called: 7
   778 ;; This function calls:
   779 ;;		_lcd_4bit_intialize
   780 ;;		_lcd_8bit_intialize
   781 ;; This function is called by:
   782 ;;		_application_intialize
   783 ;; This function uses a non-reentrant model
   784 ;;
   785                           
   786                           	psect	text2
   787   001C9A                     __ptext2:
   788                           	callstack 0
   789   001C9A                     _ecu_layer_intialize:
   790                           	callstack 22
   791   001C9A  0E94               	movlw	low _lcd_1
   792   001C9C  6E5D               	movwf	lcd_4bit_intialize@lcd^0,c
   793   001C9E  0E00               	movlw	high _lcd_1
   794   001CA0  6E5E               	movwf	(lcd_4bit_intialize@lcd+1)^0,c
   795   001CA2  ECDB  F00B         	call	_lcd_4bit_intialize	;wreg free
   796   001CA6  0E8A               	movlw	low _lcd_2
   797   001CA8  6E61               	movwf	lcd_8bit_intialize@lcd^0,c
   798   001CAA  0E00               	movlw	high _lcd_2
   799   001CAC  6E62               	movwf	(lcd_8bit_intialize@lcd+1)^0,c
   800   001CAE  ECA8  F00A         	call	_lcd_8bit_intialize	;wreg free
   801   001CB2  0012               	return		;funcret
   802   001CB4                     __end_of_ecu_layer_intialize:
   803                           	callstack 0
   804                           
   805 ;; *************** function _lcd_8bit_intialize *****************
   806 ;; Defined at:
   807 ;;		line 275 in file "ECU_Layer/Chr_LCD/ecu_chr_lcd.c"
   808 ;; Parameters:    Size  Location     Type
   809 ;;  lcd             2   25[COMRAM] PTR const struct .
   810 ;;		 -> lcd_2(10), 
   811 ;; Auto vars:     Size  Location     Type
   812 ;;  ret             1    3[BANK0 ] unsigned char 
   813 ;;  l_data_pins_    1    2[BANK0 ] unsigned char 
   814 ;; Return value:  Size  Location     Type
   815 ;;                  1    wreg      unsigned char 
   816 ;; Registers used:
   817 ;;		wreg, fsr2l, fsr2h, status,2, status,0, prodl, prodh, cstack
   818 ;; Tracked objects:
   819 ;;		On entry : 0/0
   820 ;;		On exit  : 0/0
   821 ;;		Unchanged: 0/0
   822 ;; Data sizes:     COMRAM   BANK0   BANK1   BANK2   BANK3   BANK4   BANK5   BANK6   BANK7   BANK8   BANK9  BANK10  BANK1
      +1  BANK12  BANK13  BANK14  BANK15
   823 ;;      Params:         2       0       0       0       0       0       0       0       0       0       0       0       
      +0       0       0       0       0
   824 ;;      Locals:         0       2       0       0       0       0       0       0       0       0       0       0       
      +0       0       0       0       0
   825 ;;      Temps:          0       2       0       0       0       0       0       0       0       0       0       0       
      +0       0       0       0       0
   826 ;;      Totals:         2       4       0       0       0       0       0       0       0       0       0       0       
      +0       0       0       0       0
   827 ;;Total ram usage:        6 bytes
   828 ;; Hardware stack levels used: 1
   829 ;; Hardware stack levels required when called: 6
   830 ;; This function calls:
   831 ;;		_gpio_pin_intialize
   832 ;;		_lcd_8bit_send_command
   833 ;; This function is called by:
   834 ;;		_ecu_layer_intialize
   835 ;; This function uses a non-reentrant model
   836 ;;
   837                           
   838                           	psect	text3
   839   001550                     __ptext3:
   840                           	callstack 0
   841   001550                     _lcd_8bit_intialize:
   842                           	callstack 22
   843   001550                     
   844                           ;ECU_Layer/Chr_LCD/ecu_chr_lcd.c: 278:     uint8 l_data_pins_counter = 0;
   845   001550  0E00               	movlw	0
   846   001552  0100               	movlb	0	; () banked
   847   001554  6FA6               	movwf	lcd_8bit_intialize@l_data_pins_counter& (0+255),b
   848   001556                     
   849                           ; BSR set to: 0
   850                           ;ECU_Layer/Chr_LCD/ecu_chr_lcd.c: 279:     if(((void*)0) == lcd)
   851   001556  5061               	movf	lcd_8bit_intialize@lcd^0,w,c
   852   001558  1062               	iorwf	(lcd_8bit_intialize@lcd+1)^0,w,c
   853   00155A  A4D8               	btfss	status,2,c
   854   00155C  EFB2  F00A         	goto	u4811
   855   001560  EFB4  F00A         	goto	u4810
   856   001564                     u4811:
   857   001564  EFB8  F00A         	goto	l6144
   858   001568                     u4810:
   859   001568                     
   860                           ; BSR set to: 0
   861                           ;ECU_Layer/Chr_LCD/ecu_chr_lcd.c: 280:     {;ECU_Layer/Chr_LCD/ecu_chr_lcd.c: 281:      
      +                             ret = (Std_ReturnType)0x00;
   862   001568  0E00               	movlw	0
   863   00156A  6FA7               	movwf	lcd_8bit_intialize@ret& (0+255),b
   864                           
   865                           ;ECU_Layer/Chr_LCD/ecu_chr_lcd.c: 282:     }
   866   00156C  EF43  F00B         	goto	l6180
   867   001570                     l6144:
   868                           
   869                           ; BSR set to: 0
   870                           ;ECU_Layer/Chr_LCD/ecu_chr_lcd.c: 284:     {;ECU_Layer/Chr_LCD/ecu_chr_lcd.c: 285:      
      +                             ret = gpio_pin_intialize(&(lcd->lcd_rs));
   871   001570  C061  F055         	movff	lcd_8bit_intialize@lcd,gpio_pin_intialize@_pin_config
   872   001574  C062  F056         	movff	lcd_8bit_intialize@lcd+1,gpio_pin_intialize@_pin_config+1
   873   001578  EC3E  F00D         	call	_gpio_pin_intialize	;wreg free
   874   00157C  0100               	movlb	0	; () banked
   875   00157E  6FA7               	movwf	lcd_8bit_intialize@ret& (0+255),b
   876                           
   877                           ;ECU_Layer/Chr_LCD/ecu_chr_lcd.c: 286:         ret = gpio_pin_intialize(&(lcd->lcd_en));
   878   001580  0E01               	movlw	1
   879   001582  2461               	addwf	lcd_8bit_intialize@lcd^0,w,c
   880   001584  6E55               	movwf	gpio_pin_intialize@_pin_config^0,c
   881   001586  0E00               	movlw	0
   882   001588  2062               	addwfc	(lcd_8bit_intialize@lcd+1)^0,w,c
   883   00158A  6E56               	movwf	(gpio_pin_intialize@_pin_config+1)^0,c
   884   00158C  EC3E  F00D         	call	_gpio_pin_intialize	;wreg free
   885   001590  0100               	movlb	0	; () banked
   886   001592  6FA7               	movwf	lcd_8bit_intialize@ret& (0+255),b
   887   001594                     
   888                           ; BSR set to: 0
   889                           ;ECU_Layer/Chr_LCD/ecu_chr_lcd.c: 287:         for(l_data_pins_counter = 0; l_data_pins_
      +                          counter < 8; l_data_pins_counter++)
   890   001594  0E00               	movlw	0
   891   001596  6FA6               	movwf	lcd_8bit_intialize@l_data_pins_counter& (0+255),b
   892   001598                     l6152:
   893                           
   894                           ; BSR set to: 0
   895   001598  51A6               	movf	lcd_8bit_intialize@l_data_pins_counter& (0+255),w,b
   896   00159A  2461               	addwf	lcd_8bit_intialize@lcd^0,w,c
   897   00159C  6FA4               	movwf	??_lcd_8bit_intialize& (0+255),b
   898   00159E  0E00               	movlw	0
   899   0015A0  2062               	addwfc	(lcd_8bit_intialize@lcd+1)^0,w,c
   900   0015A2  6FA5               	movwf	(??_lcd_8bit_intialize+1)& (0+255),b
   901   0015A4  0E02               	movlw	2
   902   0015A6  25A4               	addwf	??_lcd_8bit_intialize& (0+255),w,b
   903   0015A8  6E55               	movwf	gpio_pin_intialize@_pin_config^0,c
   904   0015AA  0E00               	movlw	0
   905   0015AC  21A5               	addwfc	(??_lcd_8bit_intialize+1)& (0+255),w,b
   906   0015AE  6E56               	movwf	(gpio_pin_intialize@_pin_config+1)^0,c
   907   0015B0  EC3E  F00D         	call	_gpio_pin_intialize	;wreg free
   908   0015B4                     
   909                           ;ECU_Layer/Chr_LCD/ecu_chr_lcd.c: 290:         }
   910   0015B4  0100               	movlb	0	; () banked
   911   0015B6  2BA6               	incf	lcd_8bit_intialize@l_data_pins_counter& (0+255),f,b
   912   0015B8                     
   913                           ; BSR set to: 0
   914   0015B8  0E07               	movlw	7
   915   0015BA  65A6               	cpfsgt	lcd_8bit_intialize@l_data_pins_counter& (0+255),b
   916   0015BC  EFE2  F00A         	goto	u4821
   917   0015C0  EFE4  F00A         	goto	u4820
   918   0015C4                     u4821:
   919   0015C4  EFCC  F00A         	goto	l6152
   920   0015C8                     u4820:
   921   0015C8                     
   922                           ; BSR set to: 0
   923                           ;ECU_Layer/Chr_LCD/ecu_chr_lcd.c: 291:         _delay((unsigned long)((20)*(8000000UL/40
      +                          00.0)));
   924   0015C8  0E34               	movlw	52
   925   0015CA  0100               	movlb	0	; () banked
   926   0015CC  6FA4               	movwf	??_lcd_8bit_intialize& (0+255),b
   927   0015CE  0EF1               	movlw	241
   928   0015D0                     u5377:
   929   0015D0  2EE8               	decfsz	wreg,f,c
   930   0015D2  D7FE               	bra	u5377
   931   0015D4  2FA4               	decfsz	??_lcd_8bit_intialize& (0+255),f,b
   932   0015D6  D7FC               	bra	u5377
   933   0015D8  D000               	nop2	
   934   0015DA  C061  F058         	movff	lcd_8bit_intialize@lcd,lcd_8bit_send_command@lcd
   935   0015DE  C062  F059         	movff	lcd_8bit_intialize@lcd+1,lcd_8bit_send_command@lcd+1
   936   0015E2  0E38               	movlw	56
   937   0015E4  6E5A               	movwf	lcd_8bit_send_command@command^0,c
   938   0015E6  ECBD  F00C         	call	_lcd_8bit_send_command	;wreg free
   939   0015EA                     
   940                           ;ECU_Layer/Chr_LCD/ecu_chr_lcd.c: 293:         _delay((unsigned long)((5)*(8000000UL/400
      +                          0.0)));
   941   0015EA  0E0D               	movlw	13
   942   0015EC  0100               	movlb	0	; () banked
   943   0015EE  6FA4               	movwf	??_lcd_8bit_intialize& (0+255),b
   944   0015F0  0EFB               	movlw	251
   945   0015F2                     u5387:
   946   0015F2  2EE8               	decfsz	wreg,f,c
   947   0015F4  D7FE               	bra	u5387
   948   0015F6  2FA4               	decfsz	??_lcd_8bit_intialize& (0+255),f,b
   949   0015F8  D7FC               	bra	u5387
   950   0015FA  D000               	nop2	
   951   0015FC  C061  F058         	movff	lcd_8bit_intialize@lcd,lcd_8bit_send_command@lcd
   952   001600  C062  F059         	movff	lcd_8bit_intialize@lcd+1,lcd_8bit_send_command@lcd+1
   953   001604  0E38               	movlw	56
   954   001606  6E5A               	movwf	lcd_8bit_send_command@command^0,c
   955   001608  ECBD  F00C         	call	_lcd_8bit_send_command	;wreg free
   956   00160C                     
   957                           ;ECU_Layer/Chr_LCD/ecu_chr_lcd.c: 295:         _delay((unsigned long)((150)*(8000000UL/4
      +                          000000.0)));
   958   00160C  0E64               	movlw	100
   959   00160E                     u5397:
   960   00160E  2EE8               	decfsz	wreg,f,c
   961   001610  D7FE               	bra	u5397
   962   001612  C061  F058         	movff	lcd_8bit_intialize@lcd,lcd_8bit_send_command@lcd
   963   001616  C062  F059         	movff	lcd_8bit_intialize@lcd+1,lcd_8bit_send_command@lcd+1
   964   00161A  0E38               	movlw	56
   965   00161C  6E5A               	movwf	lcd_8bit_send_command@command^0,c
   966   00161E  ECBD  F00C         	call	_lcd_8bit_send_command	;wreg free
   967   001622  C061  F058         	movff	lcd_8bit_intialize@lcd,lcd_8bit_send_command@lcd
   968   001626  C062  F059         	movff	lcd_8bit_intialize@lcd+1,lcd_8bit_send_command@lcd+1
   969   00162A  0E01               	movlw	1
   970   00162C  6E5A               	movwf	lcd_8bit_send_command@command^0,c
   971   00162E  ECBD  F00C         	call	_lcd_8bit_send_command	;wreg free
   972   001632  C061  F058         	movff	lcd_8bit_intialize@lcd,lcd_8bit_send_command@lcd
   973   001636  C062  F059         	movff	lcd_8bit_intialize@lcd+1,lcd_8bit_send_command@lcd+1
   974   00163A  0E02               	movlw	2
   975   00163C  6E5A               	movwf	lcd_8bit_send_command@command^0,c
   976   00163E  ECBD  F00C         	call	_lcd_8bit_send_command	;wreg free
   977   001642  C061  F058         	movff	lcd_8bit_intialize@lcd,lcd_8bit_send_command@lcd
   978   001646  C062  F059         	movff	lcd_8bit_intialize@lcd+1,lcd_8bit_send_command@lcd+1
   979   00164A  0E06               	movlw	6
   980   00164C  6E5A               	movwf	lcd_8bit_send_command@command^0,c
   981   00164E  ECBD  F00C         	call	_lcd_8bit_send_command	;wreg free
   982   001652  C061  F058         	movff	lcd_8bit_intialize@lcd,lcd_8bit_send_command@lcd
   983   001656  C062  F059         	movff	lcd_8bit_intialize@lcd+1,lcd_8bit_send_command@lcd+1
   984   00165A  0E0C               	movlw	12
   985   00165C  6E5A               	movwf	lcd_8bit_send_command@command^0,c
   986   00165E  ECBD  F00C         	call	_lcd_8bit_send_command	;wreg free
   987   001662  C061  F058         	movff	lcd_8bit_intialize@lcd,lcd_8bit_send_command@lcd
   988   001666  C062  F059         	movff	lcd_8bit_intialize@lcd+1,lcd_8bit_send_command@lcd+1
   989   00166A  0E38               	movlw	56
   990   00166C  6E5A               	movwf	lcd_8bit_send_command@command^0,c
   991   00166E  ECBD  F00C         	call	_lcd_8bit_send_command	;wreg free
   992   001672                     
   993                           ;ECU_Layer/Chr_LCD/ecu_chr_lcd.c: 303:         ret = lcd_8bit_send_command(lcd, 0x80);
   994   001672  C061  F058         	movff	lcd_8bit_intialize@lcd,lcd_8bit_send_command@lcd
   995   001676  C062  F059         	movff	lcd_8bit_intialize@lcd+1,lcd_8bit_send_command@lcd+1
   996   00167A  0E80               	movlw	128
   997   00167C  6E5A               	movwf	lcd_8bit_send_command@command^0,c
   998   00167E  ECBD  F00C         	call	_lcd_8bit_send_command	;wreg free
   999   001682  0100               	movlb	0	; () banked
  1000   001684  6FA7               	movwf	lcd_8bit_intialize@ret& (0+255),b
  1001   001686                     l6180:
  1002                           
  1003                           ; BSR set to: 0
  1004                           ;ECU_Layer/Chr_LCD/ecu_chr_lcd.c: 305:     return ret;
  1005   001686  51A7               	movf	lcd_8bit_intialize@ret& (0+255),w,b
  1006   001688                     
  1007                           ; BSR set to: 0
  1008   001688  0012               	return		;funcret
  1009   00168A                     __end_of_lcd_8bit_intialize:
  1010                           	callstack 0
  1011                           
  1012 ;; *************** function _lcd_8bit_send_command *****************
  1013 ;; Defined at:
  1014 ;;		line 316 in file "ECU_Layer/Chr_LCD/ecu_chr_lcd.c"
  1015 ;; Parameters:    Size  Location     Type
  1016 ;;  lcd             2   16[COMRAM] PTR const struct .
  1017 ;;		 -> lcd_2(10), 
  1018 ;;  command         1   18[COMRAM] unsigned char 
  1019 ;; Auto vars:     Size  Location     Type
  1020 ;;  l_pin_counte    1   24[COMRAM] unsigned char 
  1021 ;;  ret             1   23[COMRAM] unsigned char 
  1022 ;; Return value:  Size  Location     Type
  1023 ;;                  1    wreg      unsigned char 
  1024 ;; Registers used:
  1025 ;;		wreg, fsr2l, fsr2h, status,2, status,0, prodl, prodh, cstack
  1026 ;; Tracked objects:
  1027 ;;		On entry : 0/0
  1028 ;;		On exit  : 0/0
  1029 ;;		Unchanged: 0/0
  1030 ;; Data sizes:     COMRAM   BANK0   BANK1   BANK2   BANK3   BANK4   BANK5   BANK6   BANK7   BANK8   BANK9  BANK10  BANK1
      +1  BANK12  BANK13  BANK14  BANK15
  1031 ;;      Params:         3       0       0       0       0       0       0       0       0       0       0       0       
      +0       0       0       0       0
  1032 ;;      Locals:         2       0       0       0       0       0       0       0       0       0       0       0       
      +0       0       0       0       0
  1033 ;;      Temps:          4       0       0       0       0       0       0       0       0       0       0       0       
      +0       0       0       0       0
  1034 ;;      Totals:         9       0       0       0       0       0       0       0       0       0       0       0       
      +0       0       0       0       0
  1035 ;;Total ram usage:        9 bytes
  1036 ;; Hardware stack levels used: 1
  1037 ;; Hardware stack levels required when called: 5
  1038 ;; This function calls:
  1039 ;;		_gpio_pin_write_logic
  1040 ;;		_lcd_8bit_send_enable_signal
  1041 ;; This function is called by:
  1042 ;;		_lcd_8bit_intialize
  1043 ;;		_lcd_8bit_send_custom_char
  1044 ;;		_lcd_8bit_set_cursor
  1045 ;; This function uses a non-reentrant model
  1046 ;;
  1047                           
  1048                           	psect	text4
  1049   00197A                     __ptext4:
  1050                           	callstack 0
  1051   00197A                     _lcd_8bit_send_command:
  1052                           	callstack 22
  1053   00197A                     
  1054                           ;ECU_Layer/Chr_LCD/ecu_chr_lcd.c: 319:     uint8 l_pin_counter = 0;
  1055   00197A  0E00               	movlw	0
  1056   00197C  6E60               	movwf	lcd_8bit_send_command@l_pin_counter^0,c
  1057   00197E                     
  1058                           ;ECU_Layer/Chr_LCD/ecu_chr_lcd.c: 320:     if(((void*)0) == lcd)
  1059   00197E  5058               	movf	lcd_8bit_send_command@lcd^0,w,c
  1060   001980  1059               	iorwf	(lcd_8bit_send_command@lcd+1)^0,w,c
  1061   001982  A4D8               	btfss	status,2,c
  1062   001984  EFC6  F00C         	goto	u4761
  1063   001988  EFC8  F00C         	goto	u4760
  1064   00198C                     u4761:
  1065   00198C  EFCC  F00C         	goto	l6072
  1066   001990                     u4760:
  1067   001990                     
  1068                           ;ECU_Layer/Chr_LCD/ecu_chr_lcd.c: 321:     {;ECU_Layer/Chr_LCD/ecu_chr_lcd.c: 322:      
      +                             ret = (Std_ReturnType)0x00;
  1069   001990  0E00               	movlw	0
  1070   001992  6E5F               	movwf	lcd_8bit_send_command@ret^0,c
  1071                           
  1072                           ;ECU_Layer/Chr_LCD/ecu_chr_lcd.c: 323:     }
  1073   001994  EF03  F00D         	goto	l6088
  1074   001998                     l6072:
  1075   001998  C058  F04B         	movff	lcd_8bit_send_command@lcd,gpio_pin_write_logic@_pin_config
  1076   00199C  C059  F04C         	movff	lcd_8bit_send_command@lcd+1,gpio_pin_write_logic@_pin_config+1
  1077   0019A0  0E00               	movlw	0
  1078   0019A2  6E4D               	movwf	gpio_pin_write_logic@logic^0,c
  1079   0019A4  EC45  F00B         	call	_gpio_pin_write_logic	;wreg free
  1080   0019A8                     
  1081                           ;ECU_Layer/Chr_LCD/ecu_chr_lcd.c: 328:         for(l_pin_counter = 0; l_pin_counter < 8;
      +                           ++l_pin_counter)
  1082   0019A8  0E00               	movlw	0
  1083   0019AA  6E60               	movwf	lcd_8bit_send_command@l_pin_counter^0,c
  1084   0019AC                     l6080:
  1085   0019AC  5060               	movf	lcd_8bit_send_command@l_pin_counter^0,w,c
  1086   0019AE  2458               	addwf	lcd_8bit_send_command@lcd^0,w,c
  1087   0019B0  6E5B               	movwf	??_lcd_8bit_send_command^0,c
  1088   0019B2  0E00               	movlw	0
  1089   0019B4  2059               	addwfc	(lcd_8bit_send_command@lcd+1)^0,w,c
  1090   0019B6  6E5C               	movwf	(??_lcd_8bit_send_command+1)^0,c
  1091   0019B8  0E02               	movlw	2
  1092   0019BA  245B               	addwf	??_lcd_8bit_send_command^0,w,c
  1093   0019BC  6E4B               	movwf	gpio_pin_write_logic@_pin_config^0,c
  1094   0019BE  0E00               	movlw	0
  1095   0019C0  205C               	addwfc	(??_lcd_8bit_send_command+1)^0,w,c
  1096   0019C2  6E4C               	movwf	(gpio_pin_write_logic@_pin_config+1)^0,c
  1097   0019C4  C060  F05D         	movff	lcd_8bit_send_command@l_pin_counter,??_lcd_8bit_send_command+2
  1098   0019C8  C05A  F05E         	movff	lcd_8bit_send_command@command,??_lcd_8bit_send_command+3
  1099   0019CC  2A5D               	incf	(??_lcd_8bit_send_command+2)^0,f,c
  1100   0019CE  EFEB  F00C         	goto	u4774
  1101   0019D2                     u4775:
  1102   0019D2  90D8               	bcf	status,0,c
  1103   0019D4  325E               	rrcf	(??_lcd_8bit_send_command+3)^0,f,c
  1104   0019D6                     u4774:
  1105   0019D6  2E5D               	decfsz	(??_lcd_8bit_send_command+2)^0,f,c
  1106   0019D8  EFE9  F00C         	goto	u4775
  1107   0019DC  505E               	movf	(??_lcd_8bit_send_command+3)^0,w,c
  1108   0019DE  0B01               	andlw	1
  1109   0019E0  6E4D               	movwf	gpio_pin_write_logic@logic^0,c
  1110   0019E2  EC45  F00B         	call	_gpio_pin_write_logic	;wreg free
  1111   0019E6                     
  1112                           ;ECU_Layer/Chr_LCD/ecu_chr_lcd.c: 331:         }
  1113   0019E6  2A60               	incf	lcd_8bit_send_command@l_pin_counter^0,f,c
  1114   0019E8  0E07               	movlw	7
  1115   0019EA  6460               	cpfsgt	lcd_8bit_send_command@l_pin_counter^0,c
  1116   0019EC  EFFA  F00C         	goto	u4781
  1117   0019F0  EFFC  F00C         	goto	u4780
  1118   0019F4                     u4781:
  1119   0019F4  EFD6  F00C         	goto	l6080
  1120   0019F8                     u4780:
  1121   0019F8                     
  1122                           ;ECU_Layer/Chr_LCD/ecu_chr_lcd.c: 332:         ret = lcd_8bit_send_enable_signal(lcd);
  1123   0019F8  C058  F055         	movff	lcd_8bit_send_command@lcd,lcd_8bit_send_enable_signal@lcd
  1124   0019FC  C059  F056         	movff	lcd_8bit_send_command@lcd+1,lcd_8bit_send_enable_signal@lcd+1
  1125   001A00  ECD9  F00D         	call	_lcd_8bit_send_enable_signal	;wreg free
  1126   001A04  6E5F               	movwf	lcd_8bit_send_command@ret^0,c
  1127   001A06                     l6088:
  1128                           
  1129                           ;ECU_Layer/Chr_LCD/ecu_chr_lcd.c: 334:     return ret;
  1130   001A06  505F               	movf	lcd_8bit_send_command@ret^0,w,c
  1131   001A08  0012               	return		;funcret
  1132   001A0A                     __end_of_lcd_8bit_send_command:
  1133                           	callstack 0
  1134                           
  1135 ;; *************** function _lcd_8bit_send_enable_signal *****************
  1136 ;; Defined at:
  1137 ;;		line 590 in file "ECU_Layer/Chr_LCD/ecu_chr_lcd.c"
  1138 ;; Parameters:    Size  Location     Type
  1139 ;;  lcd             2   13[COMRAM] PTR const struct .
  1140 ;;		 -> lcd_2(10), 
  1141 ;; Auto vars:     Size  Location     Type
  1142 ;;  ret             1   15[COMRAM] unsigned char 
  1143 ;; Return value:  Size  Location     Type
  1144 ;;                  1    wreg      unsigned char 
  1145 ;; Registers used:
  1146 ;;		wreg, fsr2l, fsr2h, status,2, status,0, prodl, prodh, cstack
  1147 ;; Tracked objects:
  1148 ;;		On entry : 0/0
  1149 ;;		On exit  : 0/0
  1150 ;;		Unchanged: 0/0
  1151 ;; Data sizes:     COMRAM   BANK0   BANK1   BANK2   BANK3   BANK4   BANK5   BANK6   BANK7   BANK8   BANK9  BANK10  BANK1
      +1  BANK12  BANK13  BANK14  BANK15
  1152 ;;      Params:         2       0       0       0       0       0       0       0       0       0       0       0       
      +0       0       0       0       0
  1153 ;;      Locals:         1       0       0       0       0       0       0       0       0       0       0       0       
      +0       0       0       0       0
  1154 ;;      Temps:          0       0       0       0       0       0       0       0       0       0       0       0       
      +0       0       0       0       0
  1155 ;;      Totals:         3       0       0       0       0       0       0       0       0       0       0       0       
      +0       0       0       0       0
  1156 ;;Total ram usage:        3 bytes
  1157 ;; Hardware stack levels used: 1
  1158 ;; Hardware stack levels required when called: 4
  1159 ;; This function calls:
  1160 ;;		_gpio_pin_write_logic
  1161 ;; This function is called by:
  1162 ;;		_lcd_8bit_send_command
  1163 ;;		_lcd_8bit_send_char_data
  1164 ;; This function uses a non-reentrant model
  1165 ;;
  1166                           
  1167                           	psect	text5
  1168   001BB2                     __ptext5:
  1169                           	callstack 0
  1170   001BB2                     _lcd_8bit_send_enable_signal:
  1171                           	callstack 22
  1172   001BB2  0E01               	movlw	1
  1173   001BB4  2455               	addwf	lcd_8bit_send_enable_signal@lcd^0,w,c
  1174   001BB6  6E4B               	movwf	gpio_pin_write_logic@_pin_config^0,c
  1175   001BB8  0E00               	movlw	0
  1176   001BBA  2056               	addwfc	(lcd_8bit_send_enable_signal@lcd+1)^0,w,c
  1177   001BBC  6E4C               	movwf	(gpio_pin_write_logic@_pin_config+1)^0,c
  1178   001BBE  0E01               	movlw	1
  1179   001BC0  6E4D               	movwf	gpio_pin_write_logic@logic^0,c
  1180   001BC2  EC45  F00B         	call	_gpio_pin_write_logic	;wreg free
  1181   001BC6                     
  1182                           ;ECU_Layer/Chr_LCD/ecu_chr_lcd.c: 594:     _delay((unsigned long)((5)*(8000000UL/4000000
      +                          .0)));
  1183   001BC6  0E03               	movlw	3
  1184   001BC8                     u5407:
  1185   001BC8  2EE8               	decfsz	wreg,f,c
  1186   001BCA  D7FE               	bra	u5407
  1187   001BCC  F000               	nop	
  1188   001BCE                     
  1189                           ;ECU_Layer/Chr_LCD/ecu_chr_lcd.c: 595:     ret = gpio_pin_write_logic(&(lcd->lcd_en), GP
      +                          IO_LOW);
  1190   001BCE  0E01               	movlw	1
  1191   001BD0  2455               	addwf	lcd_8bit_send_enable_signal@lcd^0,w,c
  1192   001BD2  6E4B               	movwf	gpio_pin_write_logic@_pin_config^0,c
  1193   001BD4  0E00               	movlw	0
  1194   001BD6  2056               	addwfc	(lcd_8bit_send_enable_signal@lcd+1)^0,w,c
  1195   001BD8  6E4C               	movwf	(gpio_pin_write_logic@_pin_config+1)^0,c
  1196   001BDA  0E00               	movlw	0
  1197   001BDC  6E4D               	movwf	gpio_pin_write_logic@logic^0,c
  1198   001BDE  EC45  F00B         	call	_gpio_pin_write_logic	;wreg free
  1199   001BE2  6E57               	movwf	lcd_8bit_send_enable_signal@ret^0,c
  1200   001BE4                     
  1201                           ;ECU_Layer/Chr_LCD/ecu_chr_lcd.c: 596:     return ret;
  1202   001BE4  5057               	movf	lcd_8bit_send_enable_signal@ret^0,w,c
  1203   001BE6  0012               	return		;funcret
  1204   001BE8                     __end_of_lcd_8bit_send_enable_signal:
  1205                           	callstack 0
  1206                           
  1207 ;; *************** function _lcd_4bit_intialize *****************
  1208 ;; Defined at:
  1209 ;;		line 73 in file "ECU_Layer/Chr_LCD/ecu_chr_lcd.c"
  1210 ;; Parameters:    Size  Location     Type
  1211 ;;  lcd             2   21[COMRAM] PTR const struct .
  1212 ;;		 -> lcd_1(6), 
  1213 ;; Auto vars:     Size  Location     Type
  1214 ;;  ret             1   26[COMRAM] unsigned char 
  1215 ;;  l_data_pins_    1   25[COMRAM] unsigned char 
  1216 ;; Return value:  Size  Location     Type
  1217 ;;                  1    wreg      unsigned char 
  1218 ;; Registers used:
  1219 ;;		wreg, fsr2l, fsr2h, status,2, status,0, prodl, prodh, cstack
  1220 ;; Tracked objects:
  1221 ;;		On entry : 0/0
  1222 ;;		On exit  : 0/0
  1223 ;;		Unchanged: 0/0
  1224 ;; Data sizes:     COMRAM   BANK0   BANK1   BANK2   BANK3   BANK4   BANK5   BANK6   BANK7   BANK8   BANK9  BANK10  BANK1
      +1  BANK12  BANK13  BANK14  BANK15
  1225 ;;      Params:         2       0       0       0       0       0       0       0       0       0       0       0       
      +0       0       0       0       0
  1226 ;;      Locals:         2       0       0       0       0       0       0       0       0       0       0       0       
      +0       0       0       0       0
  1227 ;;      Temps:          2       0       0       0       0       0       0       0       0       0       0       0       
      +0       0       0       0       0
  1228 ;;      Totals:         6       0       0       0       0       0       0       0       0       0       0       0       
      +0       0       0       0       0
  1229 ;;Total ram usage:        6 bytes
  1230 ;; Hardware stack levels used: 1
  1231 ;; Hardware stack levels required when called: 6
  1232 ;; This function calls:
  1233 ;;		_gpio_pin_intialize
  1234 ;;		_lcd_4bit_send_command
  1235 ;; This function is called by:
  1236 ;;		_ecu_layer_intialize
  1237 ;; This function uses a non-reentrant model
  1238 ;;
  1239                           
  1240                           	psect	text6
  1241   0017B6                     __ptext6:
  1242                           	callstack 0
  1243   0017B6                     _lcd_4bit_intialize:
  1244                           	callstack 22
  1245   0017B6                     
  1246                           ;ECU_Layer/Chr_LCD/ecu_chr_lcd.c: 76:     uint8 l_data_pins_counter = 0;
  1247   0017B6  0E00               	movlw	0
  1248   0017B8  6E61               	movwf	lcd_4bit_intialize@l_data_pins_counter^0,c
  1249   0017BA                     
  1250                           ;ECU_Layer/Chr_LCD/ecu_chr_lcd.c: 77:     if(((void*)0) == lcd)
  1251   0017BA  505D               	movf	lcd_4bit_intialize@lcd^0,w,c
  1252   0017BC  105E               	iorwf	(lcd_4bit_intialize@lcd+1)^0,w,c
  1253   0017BE  A4D8               	btfss	status,2,c
  1254   0017C0  EFE4  F00B         	goto	u4791
  1255   0017C4  EFE6  F00B         	goto	u4790
  1256   0017C8                     u4791:
  1257   0017C8  EFEA  F00B         	goto	l6098
  1258   0017CC                     u4790:
  1259   0017CC                     
  1260                           ;ECU_Layer/Chr_LCD/ecu_chr_lcd.c: 78:     {;ECU_Layer/Chr_LCD/ecu_chr_lcd.c: 79:        
      +                           ret = (Std_ReturnType)0x00;
  1261   0017CC  0E00               	movlw	0
  1262   0017CE  6E62               	movwf	lcd_4bit_intialize@ret^0,c
  1263                           
  1264                           ;ECU_Layer/Chr_LCD/ecu_chr_lcd.c: 80:     }
  1265   0017D0  EF6D  F00C         	goto	l6134
  1266   0017D4                     l6098:
  1267                           
  1268                           ;ECU_Layer/Chr_LCD/ecu_chr_lcd.c: 82:     {;ECU_Layer/Chr_LCD/ecu_chr_lcd.c: 83:        
      +                           ret = gpio_pin_intialize(&(lcd->lcd_rs));
  1269   0017D4  C05D  F055         	movff	lcd_4bit_intialize@lcd,gpio_pin_intialize@_pin_config
  1270   0017D8  C05E  F056         	movff	lcd_4bit_intialize@lcd+1,gpio_pin_intialize@_pin_config+1
  1271   0017DC  EC3E  F00D         	call	_gpio_pin_intialize	;wreg free
  1272   0017E0  6E62               	movwf	lcd_4bit_intialize@ret^0,c
  1273                           
  1274                           ;ECU_Layer/Chr_LCD/ecu_chr_lcd.c: 84:         ret = gpio_pin_intialize(&(lcd->lcd_en));
  1275   0017E2  0E01               	movlw	1
  1276   0017E4  245D               	addwf	lcd_4bit_intialize@lcd^0,w,c
  1277   0017E6  6E55               	movwf	gpio_pin_intialize@_pin_config^0,c
  1278   0017E8  0E00               	movlw	0
  1279   0017EA  205E               	addwfc	(lcd_4bit_intialize@lcd+1)^0,w,c
  1280   0017EC  6E56               	movwf	(gpio_pin_intialize@_pin_config+1)^0,c
  1281   0017EE  EC3E  F00D         	call	_gpio_pin_intialize	;wreg free
  1282   0017F2  6E62               	movwf	lcd_4bit_intialize@ret^0,c
  1283   0017F4                     
  1284                           ;ECU_Layer/Chr_LCD/ecu_chr_lcd.c: 85:         for(l_data_pins_counter = 0; l_data_pins_c
      +                          ounter < 4; l_data_pins_counter++)
  1285   0017F4  0E00               	movlw	0
  1286   0017F6  6E61               	movwf	lcd_4bit_intialize@l_data_pins_counter^0,c
  1287   0017F8                     l6106:
  1288   0017F8  5061               	movf	lcd_4bit_intialize@l_data_pins_counter^0,w,c
  1289   0017FA  245D               	addwf	lcd_4bit_intialize@lcd^0,w,c
  1290   0017FC  6E5F               	movwf	??_lcd_4bit_intialize^0,c
  1291   0017FE  0E00               	movlw	0
  1292   001800  205E               	addwfc	(lcd_4bit_intialize@lcd+1)^0,w,c
  1293   001802  6E60               	movwf	(??_lcd_4bit_intialize+1)^0,c
  1294   001804  0E02               	movlw	2
  1295   001806  245F               	addwf	??_lcd_4bit_intialize^0,w,c
  1296   001808  6E55               	movwf	gpio_pin_intialize@_pin_config^0,c
  1297   00180A  0E00               	movlw	0
  1298   00180C  2060               	addwfc	(??_lcd_4bit_intialize+1)^0,w,c
  1299   00180E  6E56               	movwf	(gpio_pin_intialize@_pin_config+1)^0,c
  1300   001810  EC3E  F00D         	call	_gpio_pin_intialize	;wreg free
  1301   001814                     
  1302                           ;ECU_Layer/Chr_LCD/ecu_chr_lcd.c: 88:         }
  1303   001814  2A61               	incf	lcd_4bit_intialize@l_data_pins_counter^0,f,c
  1304   001816  0E03               	movlw	3
  1305   001818  6461               	cpfsgt	lcd_4bit_intialize@l_data_pins_counter^0,c
  1306   00181A  EF11  F00C         	goto	u4801
  1307   00181E  EF13  F00C         	goto	u4800
  1308   001822                     u4801:
  1309   001822  EFFC  F00B         	goto	l6106
  1310   001826                     u4800:
  1311   001826                     
  1312                           ;ECU_Layer/Chr_LCD/ecu_chr_lcd.c: 89:         _delay((unsigned long)((20)*(8000000UL/400
      +                          0.0)));
  1313   001826  0E34               	movlw	52
  1314   001828  6E5F               	movwf	??_lcd_4bit_intialize^0,c
  1315   00182A  0EF2               	movlw	242
  1316   00182C                     u5417:
  1317   00182C  2EE8               	decfsz	wreg,f,c
  1318   00182E  D7FE               	bra	u5417
  1319   001830  2E5F               	decfsz	??_lcd_4bit_intialize^0,f,c
  1320   001832  D7FC               	bra	u5417
  1321   001834  C05D  F059         	movff	lcd_4bit_intialize@lcd,lcd_4bit_send_command@lcd
  1322   001838  C05E  F05A         	movff	lcd_4bit_intialize@lcd+1,lcd_4bit_send_command@lcd+1
  1323   00183C  0E38               	movlw	56
  1324   00183E  6E5B               	movwf	lcd_4bit_send_command@command^0,c
  1325   001840  EC05  F00D         	call	_lcd_4bit_send_command	;wreg free
  1326   001844                     
  1327                           ;ECU_Layer/Chr_LCD/ecu_chr_lcd.c: 91:         _delay((unsigned long)((5)*(8000000UL/4000
      +                          .0)));
  1328   001844  0E0D               	movlw	13
  1329   001846  6E5F               	movwf	??_lcd_4bit_intialize^0,c
  1330   001848  0EFC               	movlw	252
  1331   00184A                     u5427:
  1332   00184A  2EE8               	decfsz	wreg,f,c
  1333   00184C  D7FE               	bra	u5427
  1334   00184E  2E5F               	decfsz	??_lcd_4bit_intialize^0,f,c
  1335   001850  D7FC               	bra	u5427
  1336   001852  C05D  F059         	movff	lcd_4bit_intialize@lcd,lcd_4bit_send_command@lcd
  1337   001856  C05E  F05A         	movff	lcd_4bit_intialize@lcd+1,lcd_4bit_send_command@lcd+1
  1338   00185A  0E38               	movlw	56
  1339   00185C  6E5B               	movwf	lcd_4bit_send_command@command^0,c
  1340   00185E  EC05  F00D         	call	_lcd_4bit_send_command	;wreg free
  1341   001862                     
  1342                           ;ECU_Layer/Chr_LCD/ecu_chr_lcd.c: 93:         _delay((unsigned long)((150)*(8000000UL/40
      +                          00000.0)));
  1343   001862  0E64               	movlw	100
  1344   001864                     u5437:
  1345   001864  2EE8               	decfsz	wreg,f,c
  1346   001866  D7FE               	bra	u5437
  1347   001868  C05D  F059         	movff	lcd_4bit_intialize@lcd,lcd_4bit_send_command@lcd
  1348   00186C  C05E  F05A         	movff	lcd_4bit_intialize@lcd+1,lcd_4bit_send_command@lcd+1
  1349   001870  0E38               	movlw	56
  1350   001872  6E5B               	movwf	lcd_4bit_send_command@command^0,c
  1351   001874  EC05  F00D         	call	_lcd_4bit_send_command	;wreg free
  1352   001878  C05D  F059         	movff	lcd_4bit_intialize@lcd,lcd_4bit_send_command@lcd
  1353   00187C  C05E  F05A         	movff	lcd_4bit_intialize@lcd+1,lcd_4bit_send_command@lcd+1
  1354   001880  0E01               	movlw	1
  1355   001882  6E5B               	movwf	lcd_4bit_send_command@command^0,c
  1356   001884  EC05  F00D         	call	_lcd_4bit_send_command	;wreg free
  1357   001888  C05D  F059         	movff	lcd_4bit_intialize@lcd,lcd_4bit_send_command@lcd
  1358   00188C  C05E  F05A         	movff	lcd_4bit_intialize@lcd+1,lcd_4bit_send_command@lcd+1
  1359   001890  0E02               	movlw	2
  1360   001892  6E5B               	movwf	lcd_4bit_send_command@command^0,c
  1361   001894  EC05  F00D         	call	_lcd_4bit_send_command	;wreg free
  1362   001898  C05D  F059         	movff	lcd_4bit_intialize@lcd,lcd_4bit_send_command@lcd
  1363   00189C  C05E  F05A         	movff	lcd_4bit_intialize@lcd+1,lcd_4bit_send_command@lcd+1
  1364   0018A0  0E06               	movlw	6
  1365   0018A2  6E5B               	movwf	lcd_4bit_send_command@command^0,c
  1366   0018A4  EC05  F00D         	call	_lcd_4bit_send_command	;wreg free
  1367   0018A8  C05D  F059         	movff	lcd_4bit_intialize@lcd,lcd_4bit_send_command@lcd
  1368   0018AC  C05E  F05A         	movff	lcd_4bit_intialize@lcd+1,lcd_4bit_send_command@lcd+1
  1369   0018B0  0E0C               	movlw	12
  1370   0018B2  6E5B               	movwf	lcd_4bit_send_command@command^0,c
  1371   0018B4  EC05  F00D         	call	_lcd_4bit_send_command	;wreg free
  1372   0018B8  C05D  F059         	movff	lcd_4bit_intialize@lcd,lcd_4bit_send_command@lcd
  1373   0018BC  C05E  F05A         	movff	lcd_4bit_intialize@lcd+1,lcd_4bit_send_command@lcd+1
  1374   0018C0  0E28               	movlw	40
  1375   0018C2  6E5B               	movwf	lcd_4bit_send_command@command^0,c
  1376   0018C4  EC05  F00D         	call	_lcd_4bit_send_command	;wreg free
  1377   0018C8                     
  1378                           ;ECU_Layer/Chr_LCD/ecu_chr_lcd.c: 101:         ret = lcd_4bit_send_command(lcd, 0x80);
  1379   0018C8  C05D  F059         	movff	lcd_4bit_intialize@lcd,lcd_4bit_send_command@lcd
  1380   0018CC  C05E  F05A         	movff	lcd_4bit_intialize@lcd+1,lcd_4bit_send_command@lcd+1
  1381   0018D0  0E80               	movlw	128
  1382   0018D2  6E5B               	movwf	lcd_4bit_send_command@command^0,c
  1383   0018D4  EC05  F00D         	call	_lcd_4bit_send_command	;wreg free
  1384   0018D8  6E62               	movwf	lcd_4bit_intialize@ret^0,c
  1385   0018DA                     l6134:
  1386                           
  1387                           ;ECU_Layer/Chr_LCD/ecu_chr_lcd.c: 103:     return ret;
  1388   0018DA  5062               	movf	lcd_4bit_intialize@ret^0,w,c
  1389   0018DC  0012               	return		;funcret
  1390   0018DE                     __end_of_lcd_4bit_intialize:
  1391                           	callstack 0
  1392                           
  1393 ;; *************** function _lcd_4bit_send_command *****************
  1394 ;; Defined at:
  1395 ;;		line 114 in file "ECU_Layer/Chr_LCD/ecu_chr_lcd.c"
  1396 ;; Parameters:    Size  Location     Type
  1397 ;;  lcd             2   17[COMRAM] PTR const struct .
  1398 ;;		 -> lcd_1(6), 
  1399 ;;  command         1   19[COMRAM] unsigned char 
  1400 ;; Auto vars:     Size  Location     Type
  1401 ;;  ret             1   20[COMRAM] unsigned char 
  1402 ;; Return value:  Size  Location     Type
  1403 ;;                  1    wreg      unsigned char 
  1404 ;; Registers used:
  1405 ;;		wreg, fsr2l, fsr2h, status,2, status,0, prodl, prodh, cstack
  1406 ;; Tracked objects:
  1407 ;;		On entry : 0/0
  1408 ;;		On exit  : 0/0
  1409 ;;		Unchanged: 0/0
  1410 ;; Data sizes:     COMRAM   BANK0   BANK1   BANK2   BANK3   BANK4   BANK5   BANK6   BANK7   BANK8   BANK9  BANK10  BANK1
      +1  BANK12  BANK13  BANK14  BANK15
  1411 ;;      Params:         3       0       0       0       0       0       0       0       0       0       0       0       
      +0       0       0       0       0
  1412 ;;      Locals:         1       0       0       0       0       0       0       0       0       0       0       0       
      +0       0       0       0       0
  1413 ;;      Temps:          0       0       0       0       0       0       0       0       0       0       0       0       
      +0       0       0       0       0
  1414 ;;      Totals:         4       0       0       0       0       0       0       0       0       0       0       0       
      +0       0       0       0       0
  1415 ;;Total ram usage:        4 bytes
  1416 ;; Hardware stack levels used: 1
  1417 ;; Hardware stack levels required when called: 5
  1418 ;; This function calls:
  1419 ;;		_gpio_pin_write_logic
  1420 ;;		_lcd_4bit_send_enable_signal
  1421 ;;		_lcd_send_4bits
  1422 ;; This function is called by:
  1423 ;;		_lcd_4bit_intialize
  1424 ;;		_lcd_4bit_send_custom_char
  1425 ;;		_lcd_4bit_set_cursor
  1426 ;; This function uses a non-reentrant model
  1427 ;;
  1428                           
  1429                           	psect	text7
  1430   001A0A                     __ptext7:
  1431                           	callstack 0
  1432   001A0A                     _lcd_4bit_send_command:
  1433                           	callstack 22
  1434   001A0A                     
  1435                           ;ECU_Layer/Chr_LCD/ecu_chr_lcd.c: 117:     if(((void*)0) == lcd)
  1436   001A0A  5059               	movf	lcd_4bit_send_command@lcd^0,w,c
  1437   001A0C  105A               	iorwf	(lcd_4bit_send_command@lcd+1)^0,w,c
  1438   001A0E  A4D8               	btfss	status,2,c
  1439   001A10  EF0C  F00D         	goto	u4751
  1440   001A14  EF0E  F00D         	goto	u4750
  1441   001A18                     u4751:
  1442   001A18  EF12  F00D         	goto	l6060
  1443   001A1C                     u4750:
  1444   001A1C                     
  1445                           ;ECU_Layer/Chr_LCD/ecu_chr_lcd.c: 118:     {;ECU_Layer/Chr_LCD/ecu_chr_lcd.c: 119:      
      +                             ret = (Std_ReturnType)0x00;
  1446   001A1C  0E00               	movlw	0
  1447   001A1E  6E5C               	movwf	lcd_4bit_send_command@ret^0,c
  1448                           
  1449                           ;ECU_Layer/Chr_LCD/ecu_chr_lcd.c: 120:     }
  1450   001A20  EF3C  F00D         	goto	l6062
  1451   001A24                     l6060:
  1452                           
  1453                           ;ECU_Layer/Chr_LCD/ecu_chr_lcd.c: 122:     {;ECU_Layer/Chr_LCD/ecu_chr_lcd.c: 123:      
      +                             ret = gpio_pin_write_logic(&(lcd->lcd_rs), GPIO_LOW);
  1454   001A24  C059  F04B         	movff	lcd_4bit_send_command@lcd,gpio_pin_write_logic@_pin_config
  1455   001A28  C05A  F04C         	movff	lcd_4bit_send_command@lcd+1,gpio_pin_write_logic@_pin_config+1
  1456   001A2C  0E00               	movlw	0
  1457   001A2E  6E4D               	movwf	gpio_pin_write_logic@logic^0,c
  1458   001A30  EC45  F00B         	call	_gpio_pin_write_logic	;wreg free
  1459   001A34  6E5C               	movwf	lcd_4bit_send_command@ret^0,c
  1460                           
  1461                           ;ECU_Layer/Chr_LCD/ecu_chr_lcd.c: 124:         ret = lcd_send_4bits(lcd, command >> 4);
  1462   001A36  C059  F055         	movff	lcd_4bit_send_command@lcd,lcd_send_4bits@lcd
  1463   001A3A  C05A  F056         	movff	lcd_4bit_send_command@lcd+1,lcd_send_4bits@lcd+1
  1464   001A3E  385B               	swapf	lcd_4bit_send_command@command^0,w,c
  1465   001A40  0B0F               	andlw	15
  1466   001A42  6E57               	movwf	lcd_send_4bits@_data_command^0,c
  1467   001A44  EC74  F00D         	call	_lcd_send_4bits	;wreg free
  1468   001A48  6E5C               	movwf	lcd_4bit_send_command@ret^0,c
  1469                           
  1470                           ;ECU_Layer/Chr_LCD/ecu_chr_lcd.c: 125:         ret = lcd_4bit_send_enable_signal(lcd);
  1471   001A4A  C059  F055         	movff	lcd_4bit_send_command@lcd,lcd_4bit_send_enable_signal@lcd
  1472   001A4E  C05A  F056         	movff	lcd_4bit_send_command@lcd+1,lcd_4bit_send_enable_signal@lcd+1
  1473   001A52  ECF4  F00D         	call	_lcd_4bit_send_enable_signal	;wreg free
  1474   001A56  6E5C               	movwf	lcd_4bit_send_command@ret^0,c
  1475                           
  1476                           ;ECU_Layer/Chr_LCD/ecu_chr_lcd.c: 126:         ret = lcd_send_4bits(lcd, command);
  1477   001A58  C059  F055         	movff	lcd_4bit_send_command@lcd,lcd_send_4bits@lcd
  1478   001A5C  C05A  F056         	movff	lcd_4bit_send_command@lcd+1,lcd_send_4bits@lcd+1
  1479   001A60  C05B  F057         	movff	lcd_4bit_send_command@command,lcd_send_4bits@_data_command
  1480   001A64  EC74  F00D         	call	_lcd_send_4bits	;wreg free
  1481   001A68  6E5C               	movwf	lcd_4bit_send_command@ret^0,c
  1482                           
  1483                           ;ECU_Layer/Chr_LCD/ecu_chr_lcd.c: 127:         ret = lcd_4bit_send_enable_signal(lcd);
  1484   001A6A  C059  F055         	movff	lcd_4bit_send_command@lcd,lcd_4bit_send_enable_signal@lcd
  1485   001A6E  C05A  F056         	movff	lcd_4bit_send_command@lcd+1,lcd_4bit_send_enable_signal@lcd+1
  1486   001A72  ECF4  F00D         	call	_lcd_4bit_send_enable_signal	;wreg free
  1487   001A76  6E5C               	movwf	lcd_4bit_send_command@ret^0,c
  1488   001A78                     l6062:
  1489                           
  1490                           ;ECU_Layer/Chr_LCD/ecu_chr_lcd.c: 129:     return ret;
  1491   001A78  505C               	movf	lcd_4bit_send_command@ret^0,w,c
  1492   001A7A  0012               	return		;funcret
  1493   001A7C                     __end_of_lcd_4bit_send_command:
  1494                           	callstack 0
  1495                           
  1496 ;; *************** function _lcd_send_4bits *****************
  1497 ;; Defined at:
  1498 ;;		line 557 in file "ECU_Layer/Chr_LCD/ecu_chr_lcd.c"
  1499 ;; Parameters:    Size  Location     Type
  1500 ;;  lcd             2   13[COMRAM] PTR const struct .
  1501 ;;		 -> lcd_1(6), 
  1502 ;;  _data_comman    1   15[COMRAM] unsigned char 
  1503 ;; Auto vars:     Size  Location     Type
  1504 ;;  ret             1   16[COMRAM] unsigned char 
  1505 ;; Return value:  Size  Location     Type
  1506 ;;                  1    wreg      unsigned char 
  1507 ;; Registers used:
  1508 ;;		wreg, fsr2l, fsr2h, status,2, status,0, prodl, prodh, cstack
  1509 ;; Tracked objects:
  1510 ;;		On entry : 0/0
  1511 ;;		On exit  : 0/0
  1512 ;;		Unchanged: 0/0
  1513 ;; Data sizes:     COMRAM   BANK0   BANK1   BANK2   BANK3   BANK4   BANK5   BANK6   BANK7   BANK8   BANK9  BANK10  BANK1
      +1  BANK12  BANK13  BANK14  BANK15
  1514 ;;      Params:         3       0       0       0       0       0       0       0       0       0       0       0       
      +0       0       0       0       0
  1515 ;;      Locals:         1       0       0       0       0       0       0       0       0       0       0       0       
      +0       0       0       0       0
  1516 ;;      Temps:          0       0       0       0       0       0       0       0       0       0       0       0       
      +0       0       0       0       0
  1517 ;;      Totals:         4       0       0       0       0       0       0       0       0       0       0       0       
      +0       0       0       0       0
  1518 ;;Total ram usage:        4 bytes
  1519 ;; Hardware stack levels used: 1
  1520 ;; Hardware stack levels required when called: 4
  1521 ;; This function calls:
  1522 ;;		_gpio_pin_write_logic
  1523 ;; This function is called by:
  1524 ;;		_lcd_4bit_send_command
  1525 ;;		_lcd_4bit_send_char_data
  1526 ;; This function uses a non-reentrant model
  1527 ;;
  1528                           
  1529                           	psect	text8
  1530   001AE8                     __ptext8:
  1531                           	callstack 0
  1532   001AE8                     _lcd_send_4bits:
  1533                           	callstack 22
  1534   001AE8  0E02               	movlw	2
  1535   001AEA  2455               	addwf	lcd_send_4bits@lcd^0,w,c
  1536   001AEC  6E4B               	movwf	gpio_pin_write_logic@_pin_config^0,c
  1537   001AEE  0E00               	movlw	0
  1538   001AF0  2056               	addwfc	(lcd_send_4bits@lcd+1)^0,w,c
  1539   001AF2  6E4C               	movwf	(gpio_pin_write_logic@_pin_config+1)^0,c
  1540   001AF4  5057               	movf	lcd_send_4bits@_data_command^0,w,c
  1541   001AF6  0B01               	andlw	1
  1542   001AF8  6E4D               	movwf	gpio_pin_write_logic@logic^0,c
  1543   001AFA  EC45  F00B         	call	_gpio_pin_write_logic	;wreg free
  1544   001AFE  0E03               	movlw	3
  1545   001B00  2455               	addwf	lcd_send_4bits@lcd^0,w,c
  1546   001B02  6E4B               	movwf	gpio_pin_write_logic@_pin_config^0,c
  1547   001B04  0E00               	movlw	0
  1548   001B06  2056               	addwfc	(lcd_send_4bits@lcd+1)^0,w,c
  1549   001B08  6E4C               	movwf	(gpio_pin_write_logic@_pin_config+1)^0,c
  1550   001B0A  90D8               	bcf	status,0,c
  1551   001B0C  3057               	rrcf	lcd_send_4bits@_data_command^0,w,c
  1552   001B0E  0B01               	andlw	1
  1553   001B10  6E4D               	movwf	gpio_pin_write_logic@logic^0,c
  1554   001B12  EC45  F00B         	call	_gpio_pin_write_logic	;wreg free
  1555   001B16  0E04               	movlw	4
  1556   001B18  2455               	addwf	lcd_send_4bits@lcd^0,w,c
  1557   001B1A  6E4B               	movwf	gpio_pin_write_logic@_pin_config^0,c
  1558   001B1C  0E00               	movlw	0
  1559   001B1E  2056               	addwfc	(lcd_send_4bits@lcd+1)^0,w,c
  1560   001B20  6E4C               	movwf	(gpio_pin_write_logic@_pin_config+1)^0,c
  1561   001B22  4057               	rrncf	lcd_send_4bits@_data_command^0,w,c
  1562   001B24  42E8               	rrncf	wreg,f,c
  1563   001B26  0B3F               	andlw	63
  1564   001B28  0B01               	andlw	1
  1565   001B2A  6E4D               	movwf	gpio_pin_write_logic@logic^0,c
  1566   001B2C  EC45  F00B         	call	_gpio_pin_write_logic	;wreg free
  1567   001B30                     
  1568                           ;ECU_Layer/Chr_LCD/ecu_chr_lcd.c: 563:     ret = gpio_pin_write_logic(&(lcd->lcd_data[3]
      +                          ), (_data_command >> 3) & (uint8)0x01);
  1569   001B30  0E05               	movlw	5
  1570   001B32  2455               	addwf	lcd_send_4bits@lcd^0,w,c
  1571   001B34  6E4B               	movwf	gpio_pin_write_logic@_pin_config^0,c
  1572   001B36  0E00               	movlw	0
  1573   001B38  2056               	addwfc	(lcd_send_4bits@lcd+1)^0,w,c
  1574   001B3A  6E4C               	movwf	(gpio_pin_write_logic@_pin_config+1)^0,c
  1575   001B3C  3857               	swapf	lcd_send_4bits@_data_command^0,w,c
  1576   001B3E  46E8               	rlncf	wreg,f,c
  1577   001B40  0B1F               	andlw	31
  1578   001B42  0B01               	andlw	1
  1579   001B44  6E4D               	movwf	gpio_pin_write_logic@logic^0,c
  1580   001B46  EC45  F00B         	call	_gpio_pin_write_logic	;wreg free
  1581   001B4A  6E58               	movwf	lcd_send_4bits@ret^0,c
  1582                           
  1583                           ;ECU_Layer/Chr_LCD/ecu_chr_lcd.c: 564:     return ret;
  1584   001B4C  5058               	movf	lcd_send_4bits@ret^0,w,c
  1585   001B4E  0012               	return		;funcret
  1586   001B50                     __end_of_lcd_send_4bits:
  1587                           	callstack 0
  1588                           
  1589 ;; *************** function _lcd_4bit_send_enable_signal *****************
  1590 ;; Defined at:
  1591 ;;		line 574 in file "ECU_Layer/Chr_LCD/ecu_chr_lcd.c"
  1592 ;; Parameters:    Size  Location     Type
  1593 ;;  lcd             2   13[COMRAM] PTR const struct .
  1594 ;;		 -> lcd_1(6), 
  1595 ;; Auto vars:     Size  Location     Type
  1596 ;;  ret             1   15[COMRAM] unsigned char 
  1597 ;; Return value:  Size  Location     Type
  1598 ;;                  1    wreg      unsigned char 
  1599 ;; Registers used:
  1600 ;;		wreg, fsr2l, fsr2h, status,2, status,0, prodl, prodh, cstack
  1601 ;; Tracked objects:
  1602 ;;		On entry : 0/0
  1603 ;;		On exit  : 0/0
  1604 ;;		Unchanged: 0/0
  1605 ;; Data sizes:     COMRAM   BANK0   BANK1   BANK2   BANK3   BANK4   BANK5   BANK6   BANK7   BANK8   BANK9  BANK10  BANK1
      +1  BANK12  BANK13  BANK14  BANK15
  1606 ;;      Params:         2       0       0       0       0       0       0       0       0       0       0       0       
      +0       0       0       0       0
  1607 ;;      Locals:         1       0       0       0       0       0       0       0       0       0       0       0       
      +0       0       0       0       0
  1608 ;;      Temps:          0       0       0       0       0       0       0       0       0       0       0       0       
      +0       0       0       0       0
  1609 ;;      Totals:         3       0       0       0       0       0       0       0       0       0       0       0       
      +0       0       0       0       0
  1610 ;;Total ram usage:        3 bytes
  1611 ;; Hardware stack levels used: 1
  1612 ;; Hardware stack levels required when called: 4
  1613 ;; This function calls:
  1614 ;;		_gpio_pin_write_logic
  1615 ;; This function is called by:
  1616 ;;		_lcd_4bit_send_command
  1617 ;;		_lcd_4bit_send_char_data
  1618 ;; This function uses a non-reentrant model
  1619 ;;
  1620                           
  1621                           	psect	text9
  1622   001BE8                     __ptext9:
  1623                           	callstack 0
  1624   001BE8                     _lcd_4bit_send_enable_signal:
  1625                           	callstack 22
  1626   001BE8  0E01               	movlw	1
  1627   001BEA  2455               	addwf	lcd_4bit_send_enable_signal@lcd^0,w,c
  1628   001BEC  6E4B               	movwf	gpio_pin_write_logic@_pin_config^0,c
  1629   001BEE  0E00               	movlw	0
  1630   001BF0  2056               	addwfc	(lcd_4bit_send_enable_signal@lcd+1)^0,w,c
  1631   001BF2  6E4C               	movwf	(gpio_pin_write_logic@_pin_config+1)^0,c
  1632   001BF4  0E01               	movlw	1
  1633   001BF6  6E4D               	movwf	gpio_pin_write_logic@logic^0,c
  1634   001BF8  EC45  F00B         	call	_gpio_pin_write_logic	;wreg free
  1635   001BFC                     
  1636                           ;ECU_Layer/Chr_LCD/ecu_chr_lcd.c: 578:     _delay((unsigned long)((5)*(8000000UL/4000000
      +                          .0)));
  1637   001BFC  0E03               	movlw	3
  1638   001BFE                     u5447:
  1639   001BFE  2EE8               	decfsz	wreg,f,c
  1640   001C00  D7FE               	bra	u5447
  1641   001C02  F000               	nop	
  1642   001C04                     
  1643                           ;ECU_Layer/Chr_LCD/ecu_chr_lcd.c: 579:     ret = gpio_pin_write_logic(&(lcd->lcd_en), GP
      +                          IO_LOW);
  1644   001C04  0E01               	movlw	1
  1645   001C06  2455               	addwf	lcd_4bit_send_enable_signal@lcd^0,w,c
  1646   001C08  6E4B               	movwf	gpio_pin_write_logic@_pin_config^0,c
  1647   001C0A  0E00               	movlw	0
  1648   001C0C  2056               	addwfc	(lcd_4bit_send_enable_signal@lcd+1)^0,w,c
  1649   001C0E  6E4C               	movwf	(gpio_pin_write_logic@_pin_config+1)^0,c
  1650   001C10  0E00               	movlw	0
  1651   001C12  6E4D               	movwf	gpio_pin_write_logic@logic^0,c
  1652   001C14  EC45  F00B         	call	_gpio_pin_write_logic	;wreg free
  1653   001C18  6E57               	movwf	lcd_4bit_send_enable_signal@ret^0,c
  1654   001C1A                     
  1655                           ;ECU_Layer/Chr_LCD/ecu_chr_lcd.c: 580:     return ret;
  1656   001C1A  5057               	movf	lcd_4bit_send_enable_signal@ret^0,w,c
  1657   001C1C  0012               	return		;funcret
  1658   001C1E                     __end_of_lcd_4bit_send_enable_signal:
  1659                           	callstack 0
  1660                           
  1661 ;; *************** function _gpio_pin_intialize *****************
  1662 ;; Defined at:
  1663 ;;		line 167 in file "MCAL_Layer/GPIO/hal_gpio.c"
  1664 ;; Parameters:    Size  Location     Type
  1665 ;;  _pin_config     2   13[COMRAM] PTR const struct .
  1666 ;;		 -> lcd_2.lcd_data(8), lcd_2(10), lcd_1.lcd_data(4), lcd_1(6), 
  1667 ;;		 -> relay_initialize@pin_obj(1), led_initialize@pin_obj(1), 
  1668 ;; Auto vars:     Size  Location     Type
  1669 ;;  ret             1   16[COMRAM] unsigned char 
  1670 ;; Return value:  Size  Location     Type
  1671 ;;                  1    wreg      unsigned char 
  1672 ;; Registers used:
  1673 ;;		wreg, fsr2l, fsr2h, status,2, status,0, prodl, prodh, cstack
  1674 ;; Tracked objects:
  1675 ;;		On entry : 0/0
  1676 ;;		On exit  : 0/0
  1677 ;;		Unchanged: 0/0
  1678 ;; Data sizes:     COMRAM   BANK0   BANK1   BANK2   BANK3   BANK4   BANK5   BANK6   BANK7   BANK8   BANK9  BANK10  BANK1
      +1  BANK12  BANK13  BANK14  BANK15
  1679 ;;      Params:         2       0       0       0       0       0       0       0       0       0       0       0       
      +0       0       0       0       0
  1680 ;;      Locals:         1       0       0       0       0       0       0       0       0       0       0       0       
      +0       0       0       0       0
  1681 ;;      Temps:          1       0       0       0       0       0       0       0       0       0       0       0       
      +0       0       0       0       0
  1682 ;;      Totals:         4       0       0       0       0       0       0       0       0       0       0       0       
      +0       0       0       0       0
  1683 ;;Total ram usage:        4 bytes
  1684 ;; Hardware stack levels used: 1
  1685 ;; Hardware stack levels required when called: 4
  1686 ;; This function calls:
  1687 ;;		_gpio_pin_direction_intialize
  1688 ;;		_gpio_pin_write_logic
  1689 ;; This function is called by:
  1690 ;;		_lcd_4bit_intialize
  1691 ;;		_lcd_8bit_intialize
  1692 ;;		_seven_segment_initialize
  1693 ;;		_dc_motor_initialize
  1694 ;;		_keypad_initialize
  1695 ;;		_led_initialize
  1696 ;;		_relay_initialize
  1697 ;;		_CCP_Init
  1698 ;; This function uses a non-reentrant model
  1699 ;;
  1700                           
  1701                           	psect	text10
  1702   001A7C                     __ptext10:
  1703                           	callstack 0
  1704   001A7C                     _gpio_pin_intialize:
  1705                           	callstack 23
  1706   001A7C                     
  1707                           ;MCAL_Layer/GPIO/hal_gpio.c: 170:     if(((void*)0) == _pin_config || _pin_config->pin >
      +                           8 -1)
  1708   001A7C  5055               	movf	gpio_pin_intialize@_pin_config^0,w,c
  1709   001A7E  1056               	iorwf	(gpio_pin_intialize@_pin_config+1)^0,w,c
  1710   001A80  B4D8               	btfsc	status,2,c
  1711   001A82  EF45  F00D         	goto	u4731
  1712   001A86  EF47  F00D         	goto	u4730
  1713   001A8A                     u4731:
  1714   001A8A  EF58  F00D         	goto	l6046
  1715   001A8E                     u4730:
  1716   001A8E  C055  FFD9         	movff	gpio_pin_intialize@_pin_config,fsr2l
  1717   001A92  C056  FFDA         	movff	gpio_pin_intialize@_pin_config+1,fsr2h
  1718   001A96  30DF               	rrcf	223,w,c
  1719   001A98  32E8               	rrcf	wreg,f,c
  1720   001A9A  32E8               	rrcf	wreg,f,c
  1721   001A9C  0B07               	andlw	7
  1722   001A9E  6E57               	movwf	??_gpio_pin_intialize^0,c
  1723   001AA0  0E07               	movlw	7
  1724   001AA2  6457               	cpfsgt	??_gpio_pin_intialize^0,c
  1725   001AA4  EF56  F00D         	goto	u4741
  1726   001AA8  EF58  F00D         	goto	u4740
  1727   001AAC                     u4741:
  1728   001AAC  EF5C  F00D         	goto	l6048
  1729   001AB0                     u4740:
  1730   001AB0                     l6046:
  1731                           
  1732                           ;MCAL_Layer/GPIO/hal_gpio.c: 171:     {;MCAL_Layer/GPIO/hal_gpio.c: 172:         ret = (
      +                          Std_ReturnType)0x00;
  1733   001AB0  0E00               	movlw	0
  1734   001AB2  6E58               	movwf	gpio_pin_intialize@ret^0,c
  1735                           
  1736                           ;MCAL_Layer/GPIO/hal_gpio.c: 173:     }
  1737   001AB4  EF72  F00D         	goto	l6050
  1738   001AB8                     l6048:
  1739                           
  1740                           ;MCAL_Layer/GPIO/hal_gpio.c: 175:     {;MCAL_Layer/GPIO/hal_gpio.c: 176:         ret = g
      +                          pio_pin_direction_intialize(_pin_config);
  1741   001AB8  C055  F04B         	movff	gpio_pin_intialize@_pin_config,gpio_pin_direction_intialize@_pin_config
  1742   001ABC  C056  F04C         	movff	gpio_pin_intialize@_pin_config+1,gpio_pin_direction_intialize@_pin_config+1
  1743   001AC0  EC06  F00A         	call	_gpio_pin_direction_intialize	;wreg free
  1744   001AC4  6E58               	movwf	gpio_pin_intialize@ret^0,c
  1745                           
  1746                           ;MCAL_Layer/GPIO/hal_gpio.c: 177:         ret = gpio_pin_write_logic(_pin_config, _pin_c
      +                          onfig->logic);
  1747   001AC6  C055  F04B         	movff	gpio_pin_intialize@_pin_config,gpio_pin_write_logic@_pin_config
  1748   001ACA  C056  F04C         	movff	gpio_pin_intialize@_pin_config+1,gpio_pin_write_logic@_pin_config+1
  1749   001ACE  C055  FFD9         	movff	gpio_pin_intialize@_pin_config,fsr2l
  1750   001AD2  C056  FFDA         	movff	gpio_pin_intialize@_pin_config+1,fsr2h
  1751   001AD6  0E00               	movlw	0
  1752   001AD8  BEDF               	btfsc	indf2,7,c
  1753   001ADA  0E01               	movlw	1
  1754   001ADC  6E4D               	movwf	gpio_pin_write_logic@logic^0,c
  1755   001ADE  EC45  F00B         	call	_gpio_pin_write_logic	;wreg free
  1756   001AE2  6E58               	movwf	gpio_pin_intialize@ret^0,c
  1757   001AE4                     l6050:
  1758                           
  1759                           ;MCAL_Layer/GPIO/hal_gpio.c: 179:     return ret;
  1760   001AE4  5058               	movf	gpio_pin_intialize@ret^0,w,c
  1761   001AE6  0012               	return		;funcret
  1762   001AE8                     __end_of_gpio_pin_intialize:
  1763                           	callstack 0
  1764                           
  1765 ;; *************** function _gpio_pin_write_logic *****************
  1766 ;; Defined at:
  1767 ;;		line 88 in file "MCAL_Layer/GPIO/hal_gpio.c"
  1768 ;; Parameters:    Size  Location     Type
  1769 ;;  _pin_config     2    3[COMRAM] PTR const struct .
  1770 ;;		 -> lcd_2.lcd_data(8), lcd_2(10), lcd_1.lcd_data(4), lcd_1(6), 
  1771 ;;		 -> relay_turn_off@pin_obj(1), relay_turn_on@pin_obj(1), relay_initialize@pin_obj(1), led_turn_off@pin_obj(1), 
  1772 ;;		 -> led_turn_on@pin_obj(1), led_initialize@pin_obj(1), 
  1773 ;;  logic           1    5[COMRAM] enum E2968
  1774 ;; Auto vars:     Size  Location     Type
  1775 ;;  ret             1   12[COMRAM] unsigned char 
  1776 ;; Return value:  Size  Location     Type
  1777 ;;                  1    wreg      unsigned char 
  1778 ;; Registers used:
  1779 ;;		wreg, fsr2l, fsr2h, status,2, status,0, prodl, prodh
  1780 ;; Tracked objects:
  1781 ;;		On entry : 0/0
  1782 ;;		On exit  : 0/0
  1783 ;;		Unchanged: 0/0
  1784 ;; Data sizes:     COMRAM   BANK0   BANK1   BANK2   BANK3   BANK4   BANK5   BANK6   BANK7   BANK8   BANK9  BANK10  BANK1
      +1  BANK12  BANK13  BANK14  BANK15
  1785 ;;      Params:         3       0       0       0       0       0       0       0       0       0       0       0       
      +0       0       0       0       0
  1786 ;;      Locals:         1       0       0       0       0       0       0       0       0       0       0       0       
      +0       0       0       0       0
  1787 ;;      Temps:          6       0       0       0       0       0       0       0       0       0       0       0       
      +0       0       0       0       0
  1788 ;;      Totals:        10       0       0       0       0       0       0       0       0       0       0       0       
      +0       0       0       0       0
  1789 ;;Total ram usage:       10 bytes
  1790 ;; Hardware stack levels used: 1
  1791 ;; Hardware stack levels required when called: 3
  1792 ;; This function calls:
  1793 ;;		Nothing
  1794 ;; This function is called by:
  1795 ;;		_lcd_4bit_send_command
  1796 ;;		_lcd_8bit_send_command
  1797 ;;		_lcd_send_4bits
  1798 ;;		_lcd_4bit_send_enable_signal
  1799 ;;		_lcd_8bit_send_enable_signal
  1800 ;;		_gpio_pin_intialize
  1801 ;;		_seven_segment_write_number
  1802 ;;		_lcd_4bit_send_char_data
  1803 ;;		_lcd_8bit_send_char_data
  1804 ;;		_dc_motor_move_right
  1805 ;;		_dc_motor_move_left
  1806 ;;		_dc_motor_stop
  1807 ;;		_keypad_get_value
  1808 ;;		_led_turn_on
  1809 ;;		_led_turn_off
  1810 ;;		_relay_turn_on
  1811 ;;		_relay_turn_off
  1812 ;; This function uses a non-reentrant model
  1813 ;;
  1814                           
  1815                           	psect	text11
  1816   00168A                     __ptext11:
  1817                           	callstack 0
  1818   00168A                     _gpio_pin_write_logic:
  1819                           	callstack 22
  1820   00168A                     
  1821                           ;MCAL_Layer/GPIO/hal_gpio.c: 88: Std_ReturnType gpio_pin_write_logic(const pin_config_t 
      +                          *_pin_config, logic_t logic);MCAL_Layer/GPIO/hal_gpio.c: 89: {;MCAL_Layer/GPIO/hal_gpio.
      +                          c: 90:     Std_ReturnType ret = (Std_ReturnType)0x01;
  1822   00168A  0E01               	movlw	1
  1823   00168C  6E54               	movwf	gpio_pin_write_logic@ret^0,c
  1824   00168E                     
  1825                           ;MCAL_Layer/GPIO/hal_gpio.c: 91:     if(((void*)0) == _pin_config || _pin_config->pin > 
      +                          8 -1)
  1826   00168E  504B               	movf	gpio_pin_write_logic@_pin_config^0,w,c
  1827   001690  104C               	iorwf	(gpio_pin_write_logic@_pin_config+1)^0,w,c
  1828   001692  B4D8               	btfsc	status,2,c
  1829   001694  EF4E  F00B         	goto	u4631
  1830   001698  EF50  F00B         	goto	u4630
  1831   00169C                     u4631:
  1832   00169C  EF61  F00B         	goto	l5962
  1833   0016A0                     u4630:
  1834   0016A0  C04B  FFD9         	movff	gpio_pin_write_logic@_pin_config,fsr2l
  1835   0016A4  C04C  FFDA         	movff	gpio_pin_write_logic@_pin_config+1,fsr2h
  1836   0016A8  30DF               	rrcf	223,w,c
  1837   0016AA  32E8               	rrcf	wreg,f,c
  1838   0016AC  32E8               	rrcf	wreg,f,c
  1839   0016AE  0B07               	andlw	7
  1840   0016B0  6E4E               	movwf	??_gpio_pin_write_logic^0,c
  1841   0016B2  0E07               	movlw	7
  1842   0016B4  644E               	cpfsgt	??_gpio_pin_write_logic^0,c
  1843   0016B6  EF5F  F00B         	goto	u4641
  1844   0016BA  EF61  F00B         	goto	u4640
  1845   0016BE                     u4641:
  1846   0016BE  EFC4  F00B         	goto	l5970
  1847   0016C2                     u4640:
  1848   0016C2                     l5962:
  1849                           
  1850                           ;MCAL_Layer/GPIO/hal_gpio.c: 92:     {;MCAL_Layer/GPIO/hal_gpio.c: 93:         ret = (St
      +                          d_ReturnType)0x00;
  1851   0016C2  0E00               	movlw	0
  1852   0016C4  6E54               	movwf	gpio_pin_write_logic@ret^0,c
  1853                           
  1854                           ;MCAL_Layer/GPIO/hal_gpio.c: 94:     }
  1855   0016C6  EFD9  F00B         	goto	l5972
  1856   0016CA                     l5964:
  1857                           
  1858                           ;MCAL_Layer/GPIO/hal_gpio.c: 100:                 (*lat_registers[_pin_config->port] &= 
      +                          ~((uint8)1 << _pin_config->pin));
  1859   0016CA  C04B  FFD9         	movff	gpio_pin_write_logic@_pin_config,fsr2l
  1860   0016CE  C04C  FFDA         	movff	gpio_pin_write_logic@_pin_config+1,fsr2h
  1861   0016D2  30DF               	rrcf	223,w,c
  1862   0016D4  32E8               	rrcf	wreg,f,c
  1863   0016D6  32E8               	rrcf	wreg,f,c
  1864   0016D8  0B07               	andlw	7
  1865   0016DA  6E4E               	movwf	??_gpio_pin_write_logic^0,c
  1866   0016DC  0E01               	movlw	1
  1867   0016DE  6E4F               	movwf	(??_gpio_pin_write_logic+1)^0,c
  1868   0016E0  2A4E               	incf	??_gpio_pin_write_logic^0,f,c
  1869   0016E2  EF75  F00B         	goto	u4654
  1870   0016E6                     u4655:
  1871   0016E6  90D8               	bcf	status,0,c
  1872   0016E8  364F               	rlcf	(??_gpio_pin_write_logic+1)^0,f,c
  1873   0016EA                     u4654:
  1874   0016EA  2E4E               	decfsz	??_gpio_pin_write_logic^0,f,c
  1875   0016EC  EF73  F00B         	goto	u4655
  1876   0016F0  504F               	movf	(??_gpio_pin_write_logic+1)^0,w,c
  1877   0016F2  0AFF               	xorlw	255
  1878   0016F4  6E50               	movwf	(??_gpio_pin_write_logic+2)^0,c
  1879   0016F6  C04B  FFD9         	movff	gpio_pin_write_logic@_pin_config,fsr2l
  1880   0016FA  C04C  FFDA         	movff	gpio_pin_write_logic@_pin_config+1,fsr2h
  1881   0016FE  50DF               	movf	223,w,c
  1882   001700  0B07               	andlw	7
  1883   001702  6E51               	movwf	(??_gpio_pin_write_logic+3)^0,c
  1884   001704  5051               	movf	(??_gpio_pin_write_logic+3)^0,w,c
  1885   001706  0D02               	mullw	2
  1886   001708  0E63               	movlw	low _lat_registers
  1887   00170A  24F3               	addwf	243,w,c
  1888   00170C  6ED9               	movwf	fsr2l,c
  1889   00170E  0E00               	movlw	high _lat_registers
  1890   001710  20F4               	addwfc	prodh,w,c
  1891   001712  6EDA               	movwf	fsr2h,c
  1892   001714  CFDE F052          	movff	postinc2,??_gpio_pin_write_logic+4
  1893   001718  CFDD F053          	movff	postdec2,??_gpio_pin_write_logic+5
  1894   00171C  C052  FFD9         	movff	??_gpio_pin_write_logic+4,fsr2l
  1895   001720  C053  FFDA         	movff	??_gpio_pin_write_logic+5,fsr2h
  1896   001724  5050               	movf	(??_gpio_pin_write_logic+2)^0,w,c
  1897   001726  16DF               	andwf	indf2,f,c
  1898                           
  1899                           ;MCAL_Layer/GPIO/hal_gpio.c: 101:                 break;
  1900   001728  EFD9  F00B         	goto	l5972
  1901   00172C                     l5966:
  1902                           
  1903                           ;MCAL_Layer/GPIO/hal_gpio.c: 103:                 (*lat_registers[_pin_config->port] |= 
      +                          ((uint8)1 << _pin_config->pin));
  1904   00172C  C04B  FFD9         	movff	gpio_pin_write_logic@_pin_config,fsr2l
  1905   001730  C04C  FFDA         	movff	gpio_pin_write_logic@_pin_config+1,fsr2h
  1906   001734  30DF               	rrcf	223,w,c
  1907   001736  32E8               	rrcf	wreg,f,c
  1908   001738  32E8               	rrcf	wreg,f,c
  1909   00173A  0B07               	andlw	7
  1910   00173C  6E4E               	movwf	??_gpio_pin_write_logic^0,c
  1911   00173E  0E01               	movlw	1
  1912   001740  6E4F               	movwf	(??_gpio_pin_write_logic+1)^0,c
  1913   001742  2A4E               	incf	??_gpio_pin_write_logic^0,f,c
  1914   001744  EFA6  F00B         	goto	u4664
  1915   001748                     u4665:
  1916   001748  90D8               	bcf	status,0,c
  1917   00174A  364F               	rlcf	(??_gpio_pin_write_logic+1)^0,f,c
  1918   00174C                     u4664:
  1919   00174C  2E4E               	decfsz	??_gpio_pin_write_logic^0,f,c
  1920   00174E  EFA4  F00B         	goto	u4665
  1921   001752  C04B  FFD9         	movff	gpio_pin_write_logic@_pin_config,fsr2l
  1922   001756  C04C  FFDA         	movff	gpio_pin_write_logic@_pin_config+1,fsr2h
  1923   00175A  50DF               	movf	223,w,c
  1924   00175C  0B07               	andlw	7
  1925   00175E  6E50               	movwf	(??_gpio_pin_write_logic+2)^0,c
  1926   001760  5050               	movf	(??_gpio_pin_write_logic+2)^0,w,c
  1927   001762  0D02               	mullw	2
  1928   001764  0E63               	movlw	low _lat_registers
  1929   001766  24F3               	addwf	243,w,c
  1930   001768  6ED9               	movwf	fsr2l,c
  1931   00176A  0E00               	movlw	high _lat_registers
  1932   00176C  20F4               	addwfc	prodh,w,c
  1933   00176E  6EDA               	movwf	fsr2h,c
  1934   001770  CFDE F051          	movff	postinc2,??_gpio_pin_write_logic+3
  1935   001774  CFDD F052          	movff	postdec2,??_gpio_pin_write_logic+4
  1936   001778  C051  FFD9         	movff	??_gpio_pin_write_logic+3,fsr2l
  1937   00177C  C052  FFDA         	movff	??_gpio_pin_write_logic+4,fsr2h
  1938   001780  504F               	movf	(??_gpio_pin_write_logic+1)^0,w,c
  1939   001782  12DF               	iorwf	indf2,f,c
  1940                           
  1941                           ;MCAL_Layer/GPIO/hal_gpio.c: 104:                 break;
  1942   001784  EFD9  F00B         	goto	l5972
  1943   001788                     l5970:
  1944   001788  504D               	movf	gpio_pin_write_logic@logic^0,w,c
  1945   00178A  6E4E               	movwf	??_gpio_pin_write_logic^0,c
  1946   00178C  6A4F               	clrf	(??_gpio_pin_write_logic+1)^0,c
  1947                           
  1948                           ; Switch on 2 bytes has been partitioned into a top level switch of size 1, and 1 sub-sw
      +                          itches
  1949                           ; Switch size 1, requested type "simple"
  1950                           ; Number of cases is 1, Range of values is 0 to 0
  1951                           ; switch strategies available:
  1952                           ; Name         Instructions Cycles
  1953                           ; simple_byte            4     3 (average)
  1954                           ;	Chosen strategy is simple_byte
  1955   00178E  504F               	movf	(??_gpio_pin_write_logic+1)^0,w,c
  1956   001790  0A00               	xorlw	0	; case 0
  1957   001792  B4D8               	btfsc	status,2,c
  1958   001794  EFCE  F00B         	goto	l6800
  1959   001798  EF61  F00B         	goto	l5962
  1960   00179C                     l6800:
  1961                           
  1962                           ; Switch size 1, requested type "simple"
  1963                           ; Number of cases is 2, Range of values is 0 to 1
  1964                           ; switch strategies available:
  1965                           ; Name         Instructions Cycles
  1966                           ; simple_byte            7     4 (average)
  1967                           ;	Chosen strategy is simple_byte
  1968   00179C  504E               	movf	??_gpio_pin_write_logic^0,w,c
  1969   00179E  0A00               	xorlw	0	; case 0
  1970   0017A0  B4D8               	btfsc	status,2,c
  1971   0017A2  EF65  F00B         	goto	l5964
  1972   0017A6  0A01               	xorlw	1	; case 1
  1973   0017A8  B4D8               	btfsc	status,2,c
  1974   0017AA  EF96  F00B         	goto	l5966
  1975   0017AE  EF61  F00B         	goto	l5962
  1976   0017B2                     l5972:
  1977                           
  1978                           ;MCAL_Layer/GPIO/hal_gpio.c: 108:     return ret;
  1979   0017B2  5054               	movf	gpio_pin_write_logic@ret^0,w,c
  1980   0017B4  0012               	return		;funcret
  1981   0017B6                     __end_of_gpio_pin_write_logic:
  1982                           	callstack 0
  1983                           
  1984 ;; *************** function _gpio_pin_direction_intialize *****************
  1985 ;; Defined at:
  1986 ;;		line 31 in file "MCAL_Layer/GPIO/hal_gpio.c"
  1987 ;; Parameters:    Size  Location     Type
  1988 ;;  _pin_config     2    3[COMRAM] PTR const struct .
  1989 ;;		 -> lcd_2.lcd_data(8), lcd_2(10), lcd_1.lcd_data(4), lcd_1(6), 
  1990 ;;		 -> relay_initialize@pin_obj(1), led_initialize@pin_obj(1), 
  1991 ;; Auto vars:     Size  Location     Type
  1992 ;;  ret             1   11[COMRAM] unsigned char 
  1993 ;; Return value:  Size  Location     Type
  1994 ;;                  1    wreg      unsigned char 
  1995 ;; Registers used:
  1996 ;;		wreg, fsr2l, fsr2h, status,2, status,0, prodl, prodh
  1997 ;; Tracked objects:
  1998 ;;		On entry : 0/0
  1999 ;;		On exit  : 0/0
  2000 ;;		Unchanged: 0/0
  2001 ;; Data sizes:     COMRAM   BANK0   BANK1   BANK2   BANK3   BANK4   BANK5   BANK6   BANK7   BANK8   BANK9  BANK10  BANK1
      +1  BANK12  BANK13  BANK14  BANK15
  2002 ;;      Params:         2       0       0       0       0       0       0       0       0       0       0       0       
      +0       0       0       0       0
  2003 ;;      Locals:         1       0       0       0       0       0       0       0       0       0       0       0       
      +0       0       0       0       0
  2004 ;;      Temps:          6       0       0       0       0       0       0       0       0       0       0       0       
      +0       0       0       0       0
  2005 ;;      Totals:         9       0       0       0       0       0       0       0       0       0       0       0       
      +0       0       0       0       0
  2006 ;;Total ram usage:        9 bytes
  2007 ;; Hardware stack levels used: 1
  2008 ;; Hardware stack levels required when called: 3
  2009 ;; This function calls:
  2010 ;;		Nothing
  2011 ;; This function is called by:
  2012 ;;		_gpio_pin_intialize
  2013 ;;		_button_initialize
  2014 ;;		_keypad_initialize
  2015 ;;		_Interrupt_RBx_Init
  2016 ;;		_Interrupt_INTx_Pin_Init
  2017 ;; This function uses a non-reentrant model
  2018 ;;
  2019                           
  2020                           	psect	text12
  2021   00140C                     __ptext12:
  2022                           	callstack 0
  2023   00140C                     _gpio_pin_direction_intialize:
  2024                           	callstack 23
  2025   00140C                     
  2026                           ;MCAL_Layer/GPIO/hal_gpio.c: 31: Std_ReturnType gpio_pin_direction_intialize(const pin_c
      +                          onfig_t *_pin_config);MCAL_Layer/GPIO/hal_gpio.c: 32: {;MCAL_Layer/GPIO/hal_gpio.c: 33: 
      +                              Std_ReturnType ret = (Std_ReturnType)0x01;
  2027   00140C  0E01               	movlw	1
  2028   00140E  6E53               	movwf	gpio_pin_direction_intialize@ret^0,c
  2029   001410                     
  2030                           ;MCAL_Layer/GPIO/hal_gpio.c: 34:     if(((void*)0) == _pin_config || _pin_config->pin > 
      +                          8 -1)
  2031   001410  504B               	movf	gpio_pin_direction_intialize@_pin_config^0,w,c
  2032   001412  104C               	iorwf	(gpio_pin_direction_intialize@_pin_config+1)^0,w,c
  2033   001414  B4D8               	btfsc	status,2,c
  2034   001416  EF0F  F00A         	goto	u4671
  2035   00141A  EF11  F00A         	goto	u4670
  2036   00141E                     u4671:
  2037   00141E  EF22  F00A         	goto	l5986
  2038   001422                     u4670:
  2039   001422  C04B  FFD9         	movff	gpio_pin_direction_intialize@_pin_config,fsr2l
  2040   001426  C04C  FFDA         	movff	gpio_pin_direction_intialize@_pin_config+1,fsr2h
  2041   00142A  30DF               	rrcf	223,w,c
  2042   00142C  32E8               	rrcf	wreg,f,c
  2043   00142E  32E8               	rrcf	wreg,f,c
  2044   001430  0B07               	andlw	7
  2045   001432  6E4D               	movwf	??_gpio_pin_direction_intialize^0,c
  2046   001434  0E07               	movlw	7
  2047   001436  644D               	cpfsgt	??_gpio_pin_direction_intialize^0,c
  2048   001438  EF20  F00A         	goto	u4681
  2049   00143C  EF22  F00A         	goto	u4680
  2050   001440                     u4681:
  2051   001440  EF85  F00A         	goto	l5994
  2052   001444                     u4680:
  2053   001444                     l5986:
  2054                           
  2055                           ;MCAL_Layer/GPIO/hal_gpio.c: 35:     {;MCAL_Layer/GPIO/hal_gpio.c: 36:         ret = (St
      +                          d_ReturnType)0x00;
  2056   001444  0E00               	movlw	0
  2057   001446  6E53               	movwf	gpio_pin_direction_intialize@ret^0,c
  2058                           
  2059                           ;MCAL_Layer/GPIO/hal_gpio.c: 37:     }
  2060   001448  EFA6  F00A         	goto	l5996
  2061   00144C                     l5988:
  2062                           
  2063                           ;MCAL_Layer/GPIO/hal_gpio.c: 43:                 (*tris_registers[_pin_config->port] &= 
      +                          ~((uint8)1 << _pin_config->pin));
  2064   00144C  C04B  FFD9         	movff	gpio_pin_direction_intialize@_pin_config,fsr2l
  2065   001450  C04C  FFDA         	movff	gpio_pin_direction_intialize@_pin_config+1,fsr2h
  2066   001454  30DF               	rrcf	223,w,c
  2067   001456  32E8               	rrcf	wreg,f,c
  2068   001458  32E8               	rrcf	wreg,f,c
  2069   00145A  0B07               	andlw	7
  2070   00145C  6E4D               	movwf	??_gpio_pin_direction_intialize^0,c
  2071   00145E  0E01               	movlw	1
  2072   001460  6E4E               	movwf	(??_gpio_pin_direction_intialize+1)^0,c
  2073   001462  2A4D               	incf	??_gpio_pin_direction_intialize^0,f,c
  2074   001464  EF36  F00A         	goto	u4694
  2075   001468                     u4695:
  2076   001468  90D8               	bcf	status,0,c
  2077   00146A  364E               	rlcf	(??_gpio_pin_direction_intialize+1)^0,f,c
  2078   00146C                     u4694:
  2079   00146C  2E4D               	decfsz	??_gpio_pin_direction_intialize^0,f,c
  2080   00146E  EF34  F00A         	goto	u4695
  2081   001472  504E               	movf	(??_gpio_pin_direction_intialize+1)^0,w,c
  2082   001474  0AFF               	xorlw	255
  2083   001476  6E4F               	movwf	(??_gpio_pin_direction_intialize+2)^0,c
  2084   001478  C04B  FFD9         	movff	gpio_pin_direction_intialize@_pin_config,fsr2l
  2085   00147C  C04C  FFDA         	movff	gpio_pin_direction_intialize@_pin_config+1,fsr2h
  2086   001480  50DF               	movf	223,w,c
  2087   001482  0B07               	andlw	7
  2088   001484  6E50               	movwf	(??_gpio_pin_direction_intialize+3)^0,c
  2089   001486  5050               	movf	(??_gpio_pin_direction_intialize+3)^0,w,c
  2090   001488  0D02               	mullw	2
  2091   00148A  0E6D               	movlw	low _tris_registers
  2092   00148C  24F3               	addwf	243,w,c
  2093   00148E  6ED9               	movwf	fsr2l,c
  2094   001490  0E00               	movlw	high _tris_registers
  2095   001492  20F4               	addwfc	prodh,w,c
  2096   001494  6EDA               	movwf	fsr2h,c
  2097   001496  CFDE F051          	movff	postinc2,??_gpio_pin_direction_intialize+4
  2098   00149A  CFDD F052          	movff	postdec2,??_gpio_pin_direction_intialize+5
  2099   00149E  C051  FFD9         	movff	??_gpio_pin_direction_intialize+4,fsr2l
  2100   0014A2  C052  FFDA         	movff	??_gpio_pin_direction_intialize+5,fsr2h
  2101   0014A6  504F               	movf	(??_gpio_pin_direction_intialize+2)^0,w,c
  2102   0014A8  16DF               	andwf	indf2,f,c
  2103                           
  2104                           ;MCAL_Layer/GPIO/hal_gpio.c: 44:                 break;
  2105   0014AA  EFA6  F00A         	goto	l5996
  2106   0014AE                     l5990:
  2107                           
  2108                           ;MCAL_Layer/GPIO/hal_gpio.c: 46:                 (*tris_registers[_pin_config->port] |= 
      +                          ((uint8)1 << _pin_config->pin));
  2109   0014AE  C04B  FFD9         	movff	gpio_pin_direction_intialize@_pin_config,fsr2l
  2110   0014B2  C04C  FFDA         	movff	gpio_pin_direction_intialize@_pin_config+1,fsr2h
  2111   0014B6  30DF               	rrcf	223,w,c
  2112   0014B8  32E8               	rrcf	wreg,f,c
  2113   0014BA  32E8               	rrcf	wreg,f,c
  2114   0014BC  0B07               	andlw	7
  2115   0014BE  6E4D               	movwf	??_gpio_pin_direction_intialize^0,c
  2116   0014C0  0E01               	movlw	1
  2117   0014C2  6E4E               	movwf	(??_gpio_pin_direction_intialize+1)^0,c
  2118   0014C4  2A4D               	incf	??_gpio_pin_direction_intialize^0,f,c
  2119   0014C6  EF67  F00A         	goto	u4704
  2120   0014CA                     u4705:
  2121   0014CA  90D8               	bcf	status,0,c
  2122   0014CC  364E               	rlcf	(??_gpio_pin_direction_intialize+1)^0,f,c
  2123   0014CE                     u4704:
  2124   0014CE  2E4D               	decfsz	??_gpio_pin_direction_intialize^0,f,c
  2125   0014D0  EF65  F00A         	goto	u4705
  2126   0014D4  C04B  FFD9         	movff	gpio_pin_direction_intialize@_pin_config,fsr2l
  2127   0014D8  C04C  FFDA         	movff	gpio_pin_direction_intialize@_pin_config+1,fsr2h
  2128   0014DC  50DF               	movf	223,w,c
  2129   0014DE  0B07               	andlw	7
  2130   0014E0  6E4F               	movwf	(??_gpio_pin_direction_intialize+2)^0,c
  2131   0014E2  504F               	movf	(??_gpio_pin_direction_intialize+2)^0,w,c
  2132   0014E4  0D02               	mullw	2
  2133   0014E6  0E6D               	movlw	low _tris_registers
  2134   0014E8  24F3               	addwf	243,w,c
  2135   0014EA  6ED9               	movwf	fsr2l,c
  2136   0014EC  0E00               	movlw	high _tris_registers
  2137   0014EE  20F4               	addwfc	prodh,w,c
  2138   0014F0  6EDA               	movwf	fsr2h,c
  2139   0014F2  CFDE F050          	movff	postinc2,??_gpio_pin_direction_intialize+3
  2140   0014F6  CFDD F051          	movff	postdec2,??_gpio_pin_direction_intialize+4
  2141   0014FA  C050  FFD9         	movff	??_gpio_pin_direction_intialize+3,fsr2l
  2142   0014FE  C051  FFDA         	movff	??_gpio_pin_direction_intialize+4,fsr2h
  2143   001502  504E               	movf	(??_gpio_pin_direction_intialize+1)^0,w,c
  2144   001504  12DF               	iorwf	indf2,f,c
  2145                           
  2146                           ;MCAL_Layer/GPIO/hal_gpio.c: 47:                 break;
  2147   001506  EFA6  F00A         	goto	l5996
  2148   00150A                     l5994:
  2149   00150A  C04B  FFD9         	movff	gpio_pin_direction_intialize@_pin_config,fsr2l
  2150   00150E  C04C  FFDA         	movff	gpio_pin_direction_intialize@_pin_config+1,fsr2h
  2151   001512  BCDF               	btfsc	indf2,6,c
  2152   001514  EF8E  F00A         	goto	u4711
  2153   001518  EF91  F00A         	goto	u4710
  2154   00151C                     u4711:
  2155   00151C  0E01               	movlw	1
  2156   00151E  EF92  F00A         	goto	u4720
  2157   001522                     u4710:
  2158   001522  0E00               	movlw	0
  2159   001524                     u4720:
  2160   001524  6E4D               	movwf	??_gpio_pin_direction_intialize^0,c
  2161   001526  6A4E               	clrf	(??_gpio_pin_direction_intialize+1)^0,c
  2162                           
  2163                           ; Switch on 2 bytes has been partitioned into a top level switch of size 1, and 1 sub-sw
      +                          itches
  2164                           ; Switch size 1, requested type "simple"
  2165                           ; Number of cases is 1, Range of values is 0 to 0
  2166                           ; switch strategies available:
  2167                           ; Name         Instructions Cycles
  2168                           ; simple_byte            4     3 (average)
  2169                           ;	Chosen strategy is simple_byte
  2170   001528  504E               	movf	(??_gpio_pin_direction_intialize+1)^0,w,c
  2171   00152A  0A00               	xorlw	0	; case 0
  2172   00152C  B4D8               	btfsc	status,2,c
  2173   00152E  EF9B  F00A         	goto	l6802
  2174   001532  EF22  F00A         	goto	l5986
  2175   001536                     l6802:
  2176                           
  2177                           ; Switch size 1, requested type "simple"
  2178                           ; Number of cases is 2, Range of values is 0 to 1
  2179                           ; switch strategies available:
  2180                           ; Name         Instructions Cycles
  2181                           ; simple_byte            7     4 (average)
  2182                           ;	Chosen strategy is simple_byte
  2183   001536  504D               	movf	??_gpio_pin_direction_intialize^0,w,c
  2184   001538  0A00               	xorlw	0	; case 0
  2185   00153A  B4D8               	btfsc	status,2,c
  2186   00153C  EF26  F00A         	goto	l5988
  2187   001540  0A01               	xorlw	1	; case 1
  2188   001542  B4D8               	btfsc	status,2,c
  2189   001544  EF57  F00A         	goto	l5990
  2190   001548  EF22  F00A         	goto	l5986
  2191   00154C                     l5996:
  2192                           
  2193                           ;MCAL_Layer/GPIO/hal_gpio.c: 51:     return ret;
  2194   00154C  5053               	movf	gpio_pin_direction_intialize@ret^0,w,c
  2195   00154E  0012               	return		;funcret
  2196   001550                     __end_of_gpio_pin_direction_intialize:
  2197                           	callstack 0
  2198                           
  2199 ;; *************** function _Timer2_Init *****************
  2200 ;; Defined at:
  2201 ;;		line 34 in file "MCAL_Layer/Timer2/hal_timer2.c"
  2202 ;; Parameters:    Size  Location     Type
  2203 ;;  _timer          2    3[COMRAM] PTR const struct .
  2204 ;;		 -> timer2_obj(5), 
  2205 ;; Auto vars:     Size  Location     Type
  2206 ;;  ret             1    6[COMRAM] unsigned char 
  2207 ;; Return value:  Size  Location     Type
  2208 ;;                  1    wreg      unsigned char 
  2209 ;; Registers used:
  2210 ;;		wreg, fsr2l, fsr2h, status,2, status,0
  2211 ;; Tracked objects:
  2212 ;;		On entry : 0/0
  2213 ;;		On exit  : 0/0
  2214 ;;		Unchanged: 0/0
  2215 ;; Data sizes:     COMRAM   BANK0   BANK1   BANK2   BANK3   BANK4   BANK5   BANK6   BANK7   BANK8   BANK9  BANK10  BANK1
      +1  BANK12  BANK13  BANK14  BANK15
  2216 ;;      Params:         2       0       0       0       0       0       0       0       0       0       0       0       
      +0       0       0       0       0
  2217 ;;      Locals:         1       0       0       0       0       0       0       0       0       0       0       0       
      +0       0       0       0       0
  2218 ;;      Temps:          1       0       0       0       0       0       0       0       0       0       0       0       
      +0       0       0       0       0
  2219 ;;      Totals:         4       0       0       0       0       0       0       0       0       0       0       0       
      +0       0       0       0       0
  2220 ;;Total ram usage:        4 bytes
  2221 ;; Hardware stack levels used: 1
  2222 ;; Hardware stack levels required when called: 3
  2223 ;; This function calls:
  2224 ;;		Nothing
  2225 ;; This function is called by:
  2226 ;;		_main
  2227 ;; This function uses a non-reentrant model
  2228 ;;
  2229                           
  2230                           	psect	text13
  2231   0018DE                     __ptext13:
  2232                           	callstack 0
  2233   0018DE                     _Timer2_Init:
  2234                           	callstack 27
  2235   0018DE                     
  2236                           ;MCAL_Layer/Timer2/hal_timer2.c: 37:     if(((void*)0) == _timer)
  2237   0018DE  504B               	movf	Timer2_Init@_timer^0,w,c
  2238   0018E0  104C               	iorwf	(Timer2_Init@_timer+1)^0,w,c
  2239   0018E2  A4D8               	btfss	status,2,c
  2240   0018E4  EF76  F00C         	goto	u3361
  2241   0018E8  EF78  F00C         	goto	u3360
  2242   0018EC                     u3361:
  2243   0018EC  EF7C  F00C         	goto	l1344
  2244   0018F0                     u3360:
  2245   0018F0                     
  2246                           ;MCAL_Layer/Timer2/hal_timer2.c: 38:     {;MCAL_Layer/Timer2/hal_timer2.c: 39:         r
      +                          et = (Std_ReturnType)0x00;
  2247   0018F0  0E00               	movlw	0
  2248   0018F2  6E4E               	movwf	Timer2_Init@ret^0,c
  2249                           
  2250                           ;MCAL_Layer/Timer2/hal_timer2.c: 40:     }
  2251   0018F4  EFBB  F00C         	goto	l5148
  2252   0018F8                     l1344:
  2253                           
  2254                           ;MCAL_Layer/Timer2/hal_timer2.c: 42:     {;MCAL_Layer/Timer2/hal_timer2.c: 44:         (
      +                          T2CONbits.TMR2ON = 0);
  2255   0018F8  94CA               	bcf	202,2,c	;volatile
  2256   0018FA                     
  2257                           ;MCAL_Layer/Timer2/hal_timer2.c: 47:         (T2CONbits.T2CKPS = _timer->timer2_prescale
      +                          r_value);
  2258   0018FA  EE20 F004          	lfsr	2,4
  2259   0018FE  504B               	movf	Timer2_Init@_timer^0,w,c
  2260   001900  26D9               	addwf	fsr2l,f,c
  2261   001902  504C               	movf	(Timer2_Init@_timer+1)^0,w,c
  2262   001904  22DA               	addwfc	fsr2h,f,c
  2263   001906  38DF               	swapf	223,w,c
  2264   001908  0B03               	andlw	3
  2265   00190A  6E4D               	movwf	??_Timer2_Init^0,c
  2266   00190C  50CA               	movf	202,w,c	;volatile
  2267   00190E  184D               	xorwf	??_Timer2_Init^0,w,c
  2268   001910  0BFC               	andlw	-4
  2269   001912  184D               	xorwf	??_Timer2_Init^0,w,c
  2270   001914  6ECA               	movwf	202,c	;volatile
  2271                           
  2272                           ;MCAL_Layer/Timer2/hal_timer2.c: 49:         (T2CONbits.TOUTPS = _timer->timer2_postscal
      +                          er_value);
  2273   001916  EE20 F004          	lfsr	2,4
  2274   00191A  504B               	movf	Timer2_Init@_timer^0,w,c
  2275   00191C  26D9               	addwf	fsr2l,f,c
  2276   00191E  504C               	movf	(Timer2_Init@_timer+1)^0,w,c
  2277   001920  22DA               	addwfc	fsr2h,f,c
  2278   001922  50DF               	movf	223,w,c
  2279   001924  0B0F               	andlw	15
  2280   001926  6E4D               	movwf	??_Timer2_Init^0,c
  2281   001928  464D               	rlncf	??_Timer2_Init^0,f,c
  2282   00192A  464D               	rlncf	??_Timer2_Init^0,f,c
  2283   00192C  464D               	rlncf	??_Timer2_Init^0,f,c
  2284   00192E  50CA               	movf	202,w,c	;volatile
  2285   001930  184D               	xorwf	??_Timer2_Init^0,w,c
  2286   001932  0B87               	andlw	-121
  2287   001934  184D               	xorwf	??_Timer2_Init^0,w,c
  2288   001936  6ECA               	movwf	202,c	;volatile
  2289                           
  2290                           ;MCAL_Layer/Timer2/hal_timer2.c: 51:         TMR2 = _timer->timer2_preload_value;
  2291   001938  EE20 F003          	lfsr	2,3
  2292   00193C  504B               	movf	Timer2_Init@_timer^0,w,c
  2293   00193E  26D9               	addwf	fsr2l,f,c
  2294   001940  504C               	movf	(Timer2_Init@_timer+1)^0,w,c
  2295   001942  22DA               	addwfc	fsr2h,f,c
  2296   001944  50DF               	movf	indf2,w,c
  2297   001946  6ECC               	movwf	204,c	;volatile
  2298                           
  2299                           ;MCAL_Layer/Timer2/hal_timer2.c: 52:         timer2_preload = _timer->timer2_preload_val
      +                          ue;
  2300   001948  EE20 F003          	lfsr	2,3
  2301   00194C  504B               	movf	Timer2_Init@_timer^0,w,c
  2302   00194E  26D9               	addwf	fsr2l,f,c
  2303   001950  504C               	movf	(Timer2_Init@_timer+1)^0,w,c
  2304   001952  22DA               	addwfc	fsr2h,f,c
  2305   001954  50DF               	movf	indf2,w,c
  2306   001956  6E3B               	movwf	_timer2_preload^0,c
  2307   001958                     
  2308                           ;MCAL_Layer/Timer2/hal_timer2.c: 55:         (PIE1bits.TMR2IE = 1);
  2309   001958  829D               	bsf	157,1,c	;volatile
  2310   00195A                     
  2311                           ;MCAL_Layer/Timer2/hal_timer2.c: 56:         (PIR1bits.TMR2IF = 0);
  2312   00195A  929E               	bcf	158,1,c	;volatile
  2313   00195C                     
  2314                           ;MCAL_Layer/Timer2/hal_timer2.c: 57:         TMR2_InterruptHandler = _timer->TMR2_Interr
      +                          uptHandler;
  2315   00195C  C04B  FFD9         	movff	Timer2_Init@_timer,fsr2l
  2316   001960  C04C  FFDA         	movff	Timer2_Init@_timer+1,fsr2h
  2317   001964  CFDE F00D          	movff	postinc2,_TMR2_InterruptHandler
  2318   001968  CFDD F00E          	movff	postdec2,_TMR2_InterruptHandler+1
  2319   00196C                     
  2320                           ;MCAL_Layer/Timer2/hal_timer2.c: 73:         (INTCONbits.GIE = 1);
  2321   00196C  8EF2               	bsf	242,7,c	;volatile
  2322   00196E                     
  2323                           ;MCAL_Layer/Timer2/hal_timer2.c: 74:         (INTCONbits.PEIE = 1);
  2324   00196E  8CF2               	bsf	242,6,c	;volatile
  2325   001970                     
  2326                           ;MCAL_Layer/Timer2/hal_timer2.c: 78:         (T2CONbits.TMR2ON = 1);
  2327   001970  84CA               	bsf	202,2,c	;volatile
  2328   001972                     
  2329                           ;MCAL_Layer/Timer2/hal_timer2.c: 79:         ret = (Std_ReturnType)0x01;
  2330   001972  0E01               	movlw	1
  2331   001974  6E4E               	movwf	Timer2_Init@ret^0,c
  2332   001976                     l5148:
  2333                           
  2334                           ;MCAL_Layer/Timer2/hal_timer2.c: 81:     return ret;
  2335   001976  504E               	movf	Timer2_Init@ret^0,w,c
  2336   001978  0012               	return		;funcret
  2337   00197A                     __end_of_Timer2_Init:
  2338                           	callstack 0
  2339                           
  2340 ;; *************** function _InterruptManager *****************
  2341 ;; Defined at:
  2342 ;;		line 46 in file "MCAL_Layer/Interrupt/mcal_interrupt_manager.c"
  2343 ;; Parameters:    Size  Location     Type
  2344 ;;		None
  2345 ;; Auto vars:     Size  Location     Type
  2346 ;;		None
  2347 ;; Return value:  Size  Location     Type
  2348 ;;                  1    wreg      void 
  2349 ;; Registers used:
  2350 ;;		wreg, status,2, status,0, pcl, pclath, pclatu, tosl, cstack
  2351 ;; Tracked objects:
  2352 ;;		On entry : 0/0
  2353 ;;		On exit  : 0/0
  2354 ;;		Unchanged: 0/0
  2355 ;; Data sizes:     COMRAM   BANK0   BANK1   BANK2   BANK3   BANK4   BANK5   BANK6   BANK7   BANK8   BANK9  BANK10  BANK1
      +1  BANK12  BANK13  BANK14  BANK15
  2356 ;;      Params:         0       0       0       0       0       0       0       0       0       0       0       0       
      +0       0       0       0       0
  2357 ;;      Locals:         0       0       0       0       0       0       0       0       0       0       0       0       
      +0       0       0       0       0
  2358 ;;      Temps:          2       0       0       0       0       0       0       0       0       0       0       0       
      +0       0       0       0       0
  2359 ;;      Totals:         2       0       0       0       0       0       0       0       0       0       0       0       
      +0       0       0       0       0
  2360 ;;Total ram usage:        2 bytes
  2361 ;; Hardware stack levels used: 1
  2362 ;; Hardware stack levels required when called: 2
  2363 ;; This function calls:
  2364 ;;		_ADC_ISR
  2365 ;;		_CCP1_ISR
  2366 ;;		_CCP2_ISR
  2367 ;;		_INT0_ISR
  2368 ;;		_INT1_ISR
  2369 ;;		_INT2_ISR
  2370 ;;		_MSSP_I2C_BC_ISR
  2371 ;;		_MSSP_I2C_ISR
  2372 ;;		_RB4_ISR
  2373 ;;		_RB5_ISR
  2374 ;;		_RB6_ISR
  2375 ;;		_RB7_ISR
  2376 ;;		_TMR0_ISR
  2377 ;;		_TMR1_ISR
  2378 ;;		_TMR2_ISR
  2379 ;;		_TMR3_ISR
  2380 ;;		_USART_RX_ISR
  2381 ;;		_USART_TX_ISR
  2382 ;; This function is called by:
  2383 ;;		Interrupt level 2
  2384 ;; This function uses a non-reentrant model
  2385 ;;
  2386                           
  2387                           	psect	intcode
  2388   000008                     __pintcode:
  2389                           	callstack 0
  2390   000008                     _InterruptManager:
  2391                           	callstack 22
  2392                           
  2393                           ;incstack = 0
  2394   000008  827B               	bsf	int$flags,1,c	;set compiler interrupt flag (level 2)
  2395   00000A  ED0B  F008         	call	int_func,f	;refresh shadow registers
  2396                           
  2397                           	psect	intcode_body
  2398   001016                     __pintcode_body:
  2399                           	callstack 22
  2400   001016                     int_func:
  2401                           	callstack 22
  2402   001016  0006               	pop		; remove dummy address from shadow register refresh
  2403   001018  CFFA F049          	movff	pclath,??_InterruptManager
  2404   00101C  CFFB F04A          	movff	pclatu,??_InterruptManager+1
  2405   001020                     
  2406                           ;MCAL_Layer/Interrupt/mcal_interrupt_manager.c: 49:     if((1 == INTCONbits.INT0IE) && (
      +                          1 == INTCONbits.INT0IF))
  2407   001020  A8F2               	btfss	242,4,c	;volatile
  2408   001022  EF15  F008         	goto	i2u403_41
  2409   001026  EF17  F008         	goto	i2u403_40
  2410   00102A                     i2u403_41:
  2411   00102A  EF20  F008         	goto	i2l1160
  2412   00102E                     i2u403_40:
  2413   00102E  A2F2               	btfss	242,1,c	;volatile
  2414   001030  EF1C  F008         	goto	i2u404_41
  2415   001034  EF1E  F008         	goto	i2u404_40
  2416   001038                     i2u404_41:
  2417   001038  EF20  F008         	goto	i2l1160
  2418   00103C                     i2u404_40:
  2419   00103C                     
  2420                           ;MCAL_Layer/Interrupt/mcal_interrupt_manager.c: 50:     {;MCAL_Layer/Interrupt/mcal_inte
      +                          rrupt_manager.c: 51:         INT0_ISR();
  2421   00103C  ECC1  F00E         	call	_INT0_ISR	;wreg free
  2422   001040                     i2l1160:
  2423                           
  2424                           ;MCAL_Layer/Interrupt/mcal_interrupt_manager.c: 54:     if((1 == INTCON3bits.INT1E) && (
      +                          1 == INTCON3bits.INT1F))
  2425   001040  A6F0               	btfss	240,3,c	;volatile
  2426   001042  EF25  F008         	goto	i2u405_41
  2427   001046  EF27  F008         	goto	i2u405_40
  2428   00104A                     i2u405_41:
  2429   00104A  EF30  F008         	goto	i2l1162
  2430   00104E                     i2u405_40:
  2431   00104E  A0F0               	btfss	240,0,c	;volatile
  2432   001050  EF2C  F008         	goto	i2u406_41
  2433   001054  EF2E  F008         	goto	i2u406_40
  2434   001058                     i2u406_41:
  2435   001058  EF30  F008         	goto	i2l1162
  2436   00105C                     i2u406_40:
  2437   00105C                     
  2438                           ;MCAL_Layer/Interrupt/mcal_interrupt_manager.c: 55:     {;MCAL_Layer/Interrupt/mcal_inte
      +                          rrupt_manager.c: 56:         INT1_ISR();
  2439   00105C  ECBF  F00E         	call	_INT1_ISR	;wreg free
  2440   001060                     i2l1162:
  2441                           
  2442                           ;MCAL_Layer/Interrupt/mcal_interrupt_manager.c: 59:     if((1 == INTCON3bits.INT2IE) && 
      +                          (1 == INTCON3bits.INT2IF))
  2443   001060  A8F0               	btfss	240,4,c	;volatile
  2444   001062  EF35  F008         	goto	i2u407_41
  2445   001066  EF37  F008         	goto	i2u407_40
  2446   00106A                     i2u407_41:
  2447   00106A  EF40  F008         	goto	i2l1164
  2448   00106E                     i2u407_40:
  2449   00106E  A2F0               	btfss	240,1,c	;volatile
  2450   001070  EF3C  F008         	goto	i2u408_41
  2451   001074  EF3E  F008         	goto	i2u408_40
  2452   001078                     i2u408_41:
  2453   001078  EF40  F008         	goto	i2l1164
  2454   00107C                     i2u408_40:
  2455   00107C                     
  2456                           ;MCAL_Layer/Interrupt/mcal_interrupt_manager.c: 60:     {;MCAL_Layer/Interrupt/mcal_inte
      +                          rrupt_manager.c: 61:         INT2_ISR();
  2457   00107C  ECBD  F00E         	call	_INT2_ISR	;wreg free
  2458   001080                     i2l1164:
  2459                           
  2460                           ;MCAL_Layer/Interrupt/mcal_interrupt_manager.c: 67:     if((1 == INTCONbits.RBIE) && (1 
      +                          == INTCONbits.RBIF) &&
  2461   001080  A6F2               	btfss	242,3,c	;volatile
  2462   001082  EF45  F008         	goto	i2u409_41
  2463   001086  EF47  F008         	goto	i2u409_40
  2464   00108A                     i2u409_41:
  2465   00108A  EF62  F008         	goto	i2l1166
  2466   00108E                     i2u409_40:
  2467   00108E  A0F2               	btfss	242,0,c	;volatile
  2468   001090  EF4C  F008         	goto	i2u410_41
  2469   001094  EF4E  F008         	goto	i2u410_40
  2470   001098                     i2u410_41:
  2471   001098  EF62  F008         	goto	i2l1166
  2472   00109C                     i2u410_40:
  2473   00109C  A881               	btfss	129,4,c	;volatile
  2474   00109E  EF53  F008         	goto	i2u411_41
  2475   0010A2  EF55  F008         	goto	i2u411_40
  2476   0010A6                     i2u411_41:
  2477   0010A6  EF62  F008         	goto	i2l1166
  2478   0010AA                     i2u411_40:
  2479   0010AA  047A               	decf	_RB4_Flag^0,w,c	;volatile
  2480   0010AC  A4D8               	btfss	status,2,c
  2481   0010AE  EF5B  F008         	goto	i2u412_41
  2482   0010B2  EF5D  F008         	goto	i2u412_40
  2483   0010B6                     i2u412_41:
  2484   0010B6  EF62  F008         	goto	i2l1166
  2485   0010BA                     i2u412_40:
  2486   0010BA                     
  2487                           ;MCAL_Layer/Interrupt/mcal_interrupt_manager.c: 69:     {;MCAL_Layer/Interrupt/mcal_inte
      +                          rrupt_manager.c: 70:         RB4_Flag = 0;
  2488   0010BA  0E00               	movlw	0
  2489   0010BC  6E7A               	movwf	_RB4_Flag^0,c	;volatile
  2490   0010BE                     
  2491                           ;MCAL_Layer/Interrupt/mcal_interrupt_manager.c: 71:         RB4_ISR(0);
  2492   0010BE  0E00               	movlw	0
  2493   0010C0  EC81  F00E         	call	_RB4_ISR
  2494   0010C4                     i2l1166:
  2495                           
  2496                           ;MCAL_Layer/Interrupt/mcal_interrupt_manager.c: 74:     if((1 == INTCONbits.RBIE) && (1 
      +                          == INTCONbits.RBIF) &&
  2497   0010C4  A6F2               	btfss	242,3,c	;volatile
  2498   0010C6  EF67  F008         	goto	i2u413_41
  2499   0010CA  EF69  F008         	goto	i2u413_40
  2500   0010CE                     i2u413_41:
  2501   0010CE  EF84  F008         	goto	i2l1168
  2502   0010D2                     i2u413_40:
  2503   0010D2  A0F2               	btfss	242,0,c	;volatile
  2504   0010D4  EF6E  F008         	goto	i2u414_41
  2505   0010D8  EF70  F008         	goto	i2u414_40
  2506   0010DC                     i2u414_41:
  2507   0010DC  EF84  F008         	goto	i2l1168
  2508   0010E0                     i2u414_40:
  2509   0010E0  B881               	btfsc	129,4,c	;volatile
  2510   0010E2  EF75  F008         	goto	i2u415_41
  2511   0010E6  EF77  F008         	goto	i2u415_40
  2512   0010EA                     i2u415_41:
  2513   0010EA  EF84  F008         	goto	i2l1168
  2514   0010EE                     i2u415_40:
  2515   0010EE  507A               	movf	_RB4_Flag^0,w,c	;volatile
  2516   0010F0  A4D8               	btfss	status,2,c
  2517   0010F2  EF7D  F008         	goto	i2u416_41
  2518   0010F6  EF7F  F008         	goto	i2u416_40
  2519   0010FA                     i2u416_41:
  2520   0010FA  EF84  F008         	goto	i2l1168
  2521   0010FE                     i2u416_40:
  2522   0010FE                     
  2523                           ;MCAL_Layer/Interrupt/mcal_interrupt_manager.c: 76:     {;MCAL_Layer/Interrupt/mcal_inte
      +                          rrupt_manager.c: 77:         RB4_Flag = 1;
  2524   0010FE  0E01               	movlw	1
  2525   001100  6E7A               	movwf	_RB4_Flag^0,c	;volatile
  2526   001102                     
  2527                           ;MCAL_Layer/Interrupt/mcal_interrupt_manager.c: 78:         RB4_ISR(1);
  2528   001102  0E01               	movlw	1
  2529   001104  EC81  F00E         	call	_RB4_ISR
  2530   001108                     i2l1168:
  2531                           
  2532                           ;MCAL_Layer/Interrupt/mcal_interrupt_manager.c: 81:     if((1 == INTCONbits.RBIE) && (1 
      +                          == INTCONbits.RBIF) &&
  2533   001108  A6F2               	btfss	242,3,c	;volatile
  2534   00110A  EF89  F008         	goto	i2u417_41
  2535   00110E  EF8B  F008         	goto	i2u417_40
  2536   001112                     i2u417_41:
  2537   001112  EFA6  F008         	goto	i2l1170
  2538   001116                     i2u417_40:
  2539   001116  A0F2               	btfss	242,0,c	;volatile
  2540   001118  EF90  F008         	goto	i2u418_41
  2541   00111C  EF92  F008         	goto	i2u418_40
  2542   001120                     i2u418_41:
  2543   001120  EFA6  F008         	goto	i2l1170
  2544   001124                     i2u418_40:
  2545   001124  AA81               	btfss	129,5,c	;volatile
  2546   001126  EF97  F008         	goto	i2u419_41
  2547   00112A  EF99  F008         	goto	i2u419_40
  2548   00112E                     i2u419_41:
  2549   00112E  EFA6  F008         	goto	i2l1170
  2550   001132                     i2u419_40:
  2551   001132  0479               	decf	_RB5_Flag^0,w,c	;volatile
  2552   001134  A4D8               	btfss	status,2,c
  2553   001136  EF9F  F008         	goto	i2u420_41
  2554   00113A  EFA1  F008         	goto	i2u420_40
  2555   00113E                     i2u420_41:
  2556   00113E  EFA6  F008         	goto	i2l1170
  2557   001142                     i2u420_40:
  2558   001142                     
  2559                           ;MCAL_Layer/Interrupt/mcal_interrupt_manager.c: 83:     {;MCAL_Layer/Interrupt/mcal_inte
      +                          rrupt_manager.c: 84:         RB5_Flag = 0;
  2560   001142  0E00               	movlw	0
  2561   001144  6E79               	movwf	_RB5_Flag^0,c	;volatile
  2562   001146                     
  2563                           ;MCAL_Layer/Interrupt/mcal_interrupt_manager.c: 85:         RB5_ISR(0);
  2564   001146  0E00               	movlw	0
  2565   001148  EC74  F00E         	call	_RB5_ISR
  2566   00114C                     i2l1170:
  2567                           
  2568                           ;MCAL_Layer/Interrupt/mcal_interrupt_manager.c: 88:     if((1 == INTCONbits.RBIE) && (1 
      +                          == INTCONbits.RBIF) &&
  2569   00114C  A6F2               	btfss	242,3,c	;volatile
  2570   00114E  EFAB  F008         	goto	i2u421_41
  2571   001152  EFAD  F008         	goto	i2u421_40
  2572   001156                     i2u421_41:
  2573   001156  EFC8  F008         	goto	i2l1172
  2574   00115A                     i2u421_40:
  2575   00115A  A0F2               	btfss	242,0,c	;volatile
  2576   00115C  EFB2  F008         	goto	i2u422_41
  2577   001160  EFB4  F008         	goto	i2u422_40
  2578   001164                     i2u422_41:
  2579   001164  EFC8  F008         	goto	i2l1172
  2580   001168                     i2u422_40:
  2581   001168  BA81               	btfsc	129,5,c	;volatile
  2582   00116A  EFB9  F008         	goto	i2u423_41
  2583   00116E  EFBB  F008         	goto	i2u423_40
  2584   001172                     i2u423_41:
  2585   001172  EFC8  F008         	goto	i2l1172
  2586   001176                     i2u423_40:
  2587   001176  5079               	movf	_RB5_Flag^0,w,c	;volatile
  2588   001178  A4D8               	btfss	status,2,c
  2589   00117A  EFC1  F008         	goto	i2u424_41
  2590   00117E  EFC3  F008         	goto	i2u424_40
  2591   001182                     i2u424_41:
  2592   001182  EFC8  F008         	goto	i2l1172
  2593   001186                     i2u424_40:
  2594   001186                     
  2595                           ;MCAL_Layer/Interrupt/mcal_interrupt_manager.c: 90:     {;MCAL_Layer/Interrupt/mcal_inte
      +                          rrupt_manager.c: 91:         RB5_Flag = 1;
  2596   001186  0E01               	movlw	1
  2597   001188  6E79               	movwf	_RB5_Flag^0,c	;volatile
  2598   00118A                     
  2599                           ;MCAL_Layer/Interrupt/mcal_interrupt_manager.c: 92:         RB5_ISR(1);
  2600   00118A  0E01               	movlw	1
  2601   00118C  EC74  F00E         	call	_RB5_ISR
  2602   001190                     i2l1172:
  2603                           
  2604                           ;MCAL_Layer/Interrupt/mcal_interrupt_manager.c: 95:     if((1 == INTCONbits.RBIE) && (1 
      +                          == INTCONbits.RBIF) &&
  2605   001190  A6F2               	btfss	242,3,c	;volatile
  2606   001192  EFCD  F008         	goto	i2u425_41
  2607   001196  EFCF  F008         	goto	i2u425_40
  2608   00119A                     i2u425_41:
  2609   00119A  EFEA  F008         	goto	i2l1174
  2610   00119E                     i2u425_40:
  2611   00119E  A0F2               	btfss	242,0,c	;volatile
  2612   0011A0  EFD4  F008         	goto	i2u426_41
  2613   0011A4  EFD6  F008         	goto	i2u426_40
  2614   0011A8                     i2u426_41:
  2615   0011A8  EFEA  F008         	goto	i2l1174
  2616   0011AC                     i2u426_40:
  2617   0011AC  AC81               	btfss	129,6,c	;volatile
  2618   0011AE  EFDB  F008         	goto	i2u427_41
  2619   0011B2  EFDD  F008         	goto	i2u427_40
  2620   0011B6                     i2u427_41:
  2621   0011B6  EFEA  F008         	goto	i2l1174
  2622   0011BA                     i2u427_40:
  2623   0011BA  0478               	decf	_RB6_Flag^0,w,c	;volatile
  2624   0011BC  A4D8               	btfss	status,2,c
  2625   0011BE  EFE3  F008         	goto	i2u428_41
  2626   0011C2  EFE5  F008         	goto	i2u428_40
  2627   0011C6                     i2u428_41:
  2628   0011C6  EFEA  F008         	goto	i2l1174
  2629   0011CA                     i2u428_40:
  2630   0011CA                     
  2631                           ;MCAL_Layer/Interrupt/mcal_interrupt_manager.c: 97:     {;MCAL_Layer/Interrupt/mcal_inte
      +                          rrupt_manager.c: 98:         RB6_Flag = 0;
  2632   0011CA  0E00               	movlw	0
  2633   0011CC  6E78               	movwf	_RB6_Flag^0,c	;volatile
  2634   0011CE                     
  2635                           ;MCAL_Layer/Interrupt/mcal_interrupt_manager.c: 99:         RB6_ISR(0);
  2636   0011CE  0E00               	movlw	0
  2637   0011D0  EC67  F00E         	call	_RB6_ISR
  2638   0011D4                     i2l1174:
  2639                           
  2640                           ;MCAL_Layer/Interrupt/mcal_interrupt_manager.c: 102:     if((1 == INTCONbits.RBIE) && (1
      +                           == INTCONbits.RBIF) &&
  2641   0011D4  A6F2               	btfss	242,3,c	;volatile
  2642   0011D6  EFEF  F008         	goto	i2u429_41
  2643   0011DA  EFF1  F008         	goto	i2u429_40
  2644   0011DE                     i2u429_41:
  2645   0011DE  EF0C  F009         	goto	i2l1176
  2646   0011E2                     i2u429_40:
  2647   0011E2  A0F2               	btfss	242,0,c	;volatile
  2648   0011E4  EFF6  F008         	goto	i2u430_41
  2649   0011E8  EFF8  F008         	goto	i2u430_40
  2650   0011EC                     i2u430_41:
  2651   0011EC  EF0C  F009         	goto	i2l1176
  2652   0011F0                     i2u430_40:
  2653   0011F0  BC81               	btfsc	129,6,c	;volatile
  2654   0011F2  EFFD  F008         	goto	i2u431_41
  2655   0011F6  EFFF  F008         	goto	i2u431_40
  2656   0011FA                     i2u431_41:
  2657   0011FA  EF0C  F009         	goto	i2l1176
  2658   0011FE                     i2u431_40:
  2659   0011FE  5078               	movf	_RB6_Flag^0,w,c	;volatile
  2660   001200  A4D8               	btfss	status,2,c
  2661   001202  EF05  F009         	goto	i2u432_41
  2662   001206  EF07  F009         	goto	i2u432_40
  2663   00120A                     i2u432_41:
  2664   00120A  EF0C  F009         	goto	i2l1176
  2665   00120E                     i2u432_40:
  2666   00120E                     
  2667                           ;MCAL_Layer/Interrupt/mcal_interrupt_manager.c: 104:     {;MCAL_Layer/Interrupt/mcal_int
      +                          errupt_manager.c: 105:         RB6_Flag = 1;
  2668   00120E  0E01               	movlw	1
  2669   001210  6E78               	movwf	_RB6_Flag^0,c	;volatile
  2670   001212                     
  2671                           ;MCAL_Layer/Interrupt/mcal_interrupt_manager.c: 106:         RB6_ISR(1);
  2672   001212  0E01               	movlw	1
  2673   001214  EC67  F00E         	call	_RB6_ISR
  2674   001218                     i2l1176:
  2675                           
  2676                           ;MCAL_Layer/Interrupt/mcal_interrupt_manager.c: 109:     if((1 == INTCONbits.RBIE) && (1
      +                           == INTCONbits.RBIF) &&
  2677   001218  A6F2               	btfss	242,3,c	;volatile
  2678   00121A  EF11  F009         	goto	i2u433_41
  2679   00121E  EF13  F009         	goto	i2u433_40
  2680   001222                     i2u433_41:
  2681   001222  EF2E  F009         	goto	i2l1178
  2682   001226                     i2u433_40:
  2683   001226  A0F2               	btfss	242,0,c	;volatile
  2684   001228  EF18  F009         	goto	i2u434_41
  2685   00122C  EF1A  F009         	goto	i2u434_40
  2686   001230                     i2u434_41:
  2687   001230  EF2E  F009         	goto	i2l1178
  2688   001234                     i2u434_40:
  2689   001234  AE81               	btfss	129,7,c	;volatile
  2690   001236  EF1F  F009         	goto	i2u435_41
  2691   00123A  EF21  F009         	goto	i2u435_40
  2692   00123E                     i2u435_41:
  2693   00123E  EF2E  F009         	goto	i2l1178
  2694   001242                     i2u435_40:
  2695   001242  0477               	decf	_RB7_Flag^0,w,c	;volatile
  2696   001244  A4D8               	btfss	status,2,c
  2697   001246  EF27  F009         	goto	i2u436_41
  2698   00124A  EF29  F009         	goto	i2u436_40
  2699   00124E                     i2u436_41:
  2700   00124E  EF2E  F009         	goto	i2l1178
  2701   001252                     i2u436_40:
  2702   001252                     
  2703                           ;MCAL_Layer/Interrupt/mcal_interrupt_manager.c: 111:     {;MCAL_Layer/Interrupt/mcal_int
      +                          errupt_manager.c: 112:         RB7_Flag = 0;
  2704   001252  0E00               	movlw	0
  2705   001254  6E77               	movwf	_RB7_Flag^0,c	;volatile
  2706   001256                     
  2707                           ;MCAL_Layer/Interrupt/mcal_interrupt_manager.c: 113:         RB7_ISR(0);
  2708   001256  0E00               	movlw	0
  2709   001258  EC5A  F00E         	call	_RB7_ISR
  2710   00125C                     i2l1178:
  2711                           
  2712                           ;MCAL_Layer/Interrupt/mcal_interrupt_manager.c: 116:     if((1 == INTCONbits.RBIE) && (1
      +                           == INTCONbits.RBIF) &&
  2713   00125C  A6F2               	btfss	242,3,c	;volatile
  2714   00125E  EF33  F009         	goto	i2u437_41
  2715   001262  EF35  F009         	goto	i2u437_40
  2716   001266                     i2u437_41:
  2717   001266  EF50  F009         	goto	i2l1180
  2718   00126A                     i2u437_40:
  2719   00126A  A0F2               	btfss	242,0,c	;volatile
  2720   00126C  EF3A  F009         	goto	i2u438_41
  2721   001270  EF3C  F009         	goto	i2u438_40
  2722   001274                     i2u438_41:
  2723   001274  EF50  F009         	goto	i2l1180
  2724   001278                     i2u438_40:
  2725   001278  BE81               	btfsc	129,7,c	;volatile
  2726   00127A  EF41  F009         	goto	i2u439_41
  2727   00127E  EF43  F009         	goto	i2u439_40
  2728   001282                     i2u439_41:
  2729   001282  EF50  F009         	goto	i2l1180
  2730   001286                     i2u439_40:
  2731   001286  5077               	movf	_RB7_Flag^0,w,c	;volatile
  2732   001288  A4D8               	btfss	status,2,c
  2733   00128A  EF49  F009         	goto	i2u440_41
  2734   00128E  EF4B  F009         	goto	i2u440_40
  2735   001292                     i2u440_41:
  2736   001292  EF50  F009         	goto	i2l1180
  2737   001296                     i2u440_40:
  2738   001296                     
  2739                           ;MCAL_Layer/Interrupt/mcal_interrupt_manager.c: 118:     {;MCAL_Layer/Interrupt/mcal_int
      +                          errupt_manager.c: 119:         RB7_Flag = 1;
  2740   001296  0E01               	movlw	1
  2741   001298  6E77               	movwf	_RB7_Flag^0,c	;volatile
  2742   00129A                     
  2743                           ;MCAL_Layer/Interrupt/mcal_interrupt_manager.c: 120:         RB7_ISR(1);
  2744   00129A  0E01               	movlw	1
  2745   00129C  EC5A  F00E         	call	_RB7_ISR
  2746   0012A0                     i2l1180:
  2747                           
  2748                           ;MCAL_Layer/Interrupt/mcal_interrupt_manager.c: 126:     if((1 == PIE1bits.ADIE) && (1 =
      +                          = PIR1bits.ADIF))
  2749   0012A0  AC9D               	btfss	157,6,c	;volatile
  2750   0012A2  EF55  F009         	goto	i2u441_41
  2751   0012A6  EF57  F009         	goto	i2u441_40
  2752   0012AA                     i2u441_41:
  2753   0012AA  EF60  F009         	goto	i2l1182
  2754   0012AE                     i2u441_40:
  2755   0012AE  AC9E               	btfss	158,6,c	;volatile
  2756   0012B0  EF5C  F009         	goto	i2u442_41
  2757   0012B4  EF5E  F009         	goto	i2u442_40
  2758   0012B8                     i2u442_41:
  2759   0012B8  EF60  F009         	goto	i2l1182
  2760   0012BC                     i2u442_40:
  2761   0012BC                     
  2762                           ;MCAL_Layer/Interrupt/mcal_interrupt_manager.c: 127:     {;MCAL_Layer/Interrupt/mcal_int
      +                          errupt_manager.c: 128:         ADC_ISR();
  2763   0012BC  ECC7  F00E         	call	_ADC_ISR	;wreg free
  2764   0012C0                     i2l1182:
  2765                           
  2766                           ;MCAL_Layer/Interrupt/mcal_interrupt_manager.c: 134:     if((1 == INTCONbits.TMR0IE) && 
      +                          (1 == INTCONbits.TMR0IF))
  2767   0012C0  AAF2               	btfss	242,5,c	;volatile
  2768   0012C2  EF65  F009         	goto	i2u443_41
  2769   0012C6  EF67  F009         	goto	i2u443_40
  2770   0012CA                     i2u443_41:
  2771   0012CA  EF70  F009         	goto	i2l1184
  2772   0012CE                     i2u443_40:
  2773   0012CE  A4F2               	btfss	242,2,c	;volatile
  2774   0012D0  EF6C  F009         	goto	i2u444_41
  2775   0012D4  EF6E  F009         	goto	i2u444_40
  2776   0012D8                     i2u444_41:
  2777   0012D8  EF70  F009         	goto	i2l1184
  2778   0012DC                     i2u444_40:
  2779   0012DC                     
  2780                           ;MCAL_Layer/Interrupt/mcal_interrupt_manager.c: 135:     {;MCAL_Layer/Interrupt/mcal_int
      +                          errupt_manager.c: 136:         TMR0_ISR();
  2781   0012DC  ECAE  F00E         	call	_TMR0_ISR	;wreg free
  2782   0012E0                     i2l1184:
  2783                           
  2784                           ;MCAL_Layer/Interrupt/mcal_interrupt_manager.c: 139:     if((1 == PIE1bits.TMR1IE) && (1
      +                           == PIR1bits.TMR1IF))
  2785   0012E0  A09D               	btfss	157,0,c	;volatile
  2786   0012E2  EF75  F009         	goto	i2u445_41
  2787   0012E6  EF77  F009         	goto	i2u445_40
  2788   0012EA                     i2u445_41:
  2789   0012EA  EF80  F009         	goto	i2l1186
  2790   0012EE                     i2u445_40:
  2791   0012EE  A09E               	btfss	158,0,c	;volatile
  2792   0012F0  EF7C  F009         	goto	i2u446_41
  2793   0012F4  EF7E  F009         	goto	i2u446_40
  2794   0012F8                     i2u446_41:
  2795   0012F8  EF80  F009         	goto	i2l1186
  2796   0012FC                     i2u446_40:
  2797   0012FC                     
  2798                           ;MCAL_Layer/Interrupt/mcal_interrupt_manager.c: 140:     {;MCAL_Layer/Interrupt/mcal_int
      +                          errupt_manager.c: 141:         TMR1_ISR();
  2799   0012FC  ECA8  F00E         	call	_TMR1_ISR	;wreg free
  2800   001300                     i2l1186:
  2801                           
  2802                           ;MCAL_Layer/Interrupt/mcal_interrupt_manager.c: 144:     if((1 == PIE1bits.TMR2IE) && (1
      +                           == PIR1bits.TMR2IF))
  2803   001300  A29D               	btfss	157,1,c	;volatile
  2804   001302  EF85  F009         	goto	i2u447_41
  2805   001306  EF87  F009         	goto	i2u447_40
  2806   00130A                     i2u447_41:
  2807   00130A  EF90  F009         	goto	i2l1188
  2808   00130E                     i2u447_40:
  2809   00130E  A29E               	btfss	158,1,c	;volatile
  2810   001310  EF8C  F009         	goto	i2u448_41
  2811   001314  EF8E  F009         	goto	i2u448_40
  2812   001318                     i2u448_41:
  2813   001318  EF90  F009         	goto	i2l1188
  2814   00131C                     i2u448_40:
  2815   00131C                     
  2816                           ;MCAL_Layer/Interrupt/mcal_interrupt_manager.c: 145:     {;MCAL_Layer/Interrupt/mcal_int
      +                          errupt_manager.c: 146:         TMR2_ISR();
  2817   00131C  EC0F  F00E         	call	_TMR2_ISR	;wreg free
  2818   001320                     i2l1188:
  2819                           
  2820                           ;MCAL_Layer/Interrupt/mcal_interrupt_manager.c: 149:     if((1 == PIE2bits.TMR3IE) && (1
      +                           == PIR2bits.TMR3IF))
  2821   001320  A2A0               	btfss	160,1,c	;volatile
  2822   001322  EF95  F009         	goto	i2u449_41
  2823   001326  EF97  F009         	goto	i2u449_40
  2824   00132A                     i2u449_41:
  2825   00132A  EFA0  F009         	goto	i2l1190
  2826   00132E                     i2u449_40:
  2827   00132E  A2A1               	btfss	161,1,c	;volatile
  2828   001330  EF9C  F009         	goto	i2u450_41
  2829   001334  EF9E  F009         	goto	i2u450_40
  2830   001338                     i2u450_41:
  2831   001338  EFA0  F009         	goto	i2l1190
  2832   00133C                     i2u450_40:
  2833   00133C                     
  2834                           ;MCAL_Layer/Interrupt/mcal_interrupt_manager.c: 150:     {;MCAL_Layer/Interrupt/mcal_int
      +                          errupt_manager.c: 151:         TMR3_ISR();
  2835   00133C  ECA2  F00E         	call	_TMR3_ISR	;wreg free
  2836   001340                     i2l1190:
  2837                           
  2838                           ;MCAL_Layer/Interrupt/mcal_interrupt_manager.c: 157:     if((1 == PIE1bits.TXIE) && (1 =
      +                          = PIR1bits.TXIF))
  2839   001340  A89D               	btfss	157,4,c	;volatile
  2840   001342  EFA5  F009         	goto	i2u451_41
  2841   001346  EFA7  F009         	goto	i2u451_40
  2842   00134A                     i2u451_41:
  2843   00134A  EFB0  F009         	goto	i2l1192
  2844   00134E                     i2u451_40:
  2845   00134E  A89E               	btfss	158,4,c	;volatile
  2846   001350  EFAC  F009         	goto	i2u452_41
  2847   001354  EFAE  F009         	goto	i2u452_40
  2848   001358                     i2u452_41:
  2849   001358  EFB0  F009         	goto	i2l1192
  2850   00135C                     i2u452_40:
  2851   00135C                     
  2852                           ;MCAL_Layer/Interrupt/mcal_interrupt_manager.c: 158:     {;MCAL_Layer/Interrupt/mcal_int
      +                          errupt_manager.c: 159:         USART_TX_ISR();
  2853   00135C  ECB7  F00E         	call	_USART_TX_ISR	;wreg free
  2854   001360                     i2l1192:
  2855                           
  2856                           ;MCAL_Layer/Interrupt/mcal_interrupt_manager.c: 162:     if((1 == PIE1bits.RCIE) && (1 =
      +                          = PIR1bits.RCIF))
  2857   001360  AA9D               	btfss	157,5,c	;volatile
  2858   001362  EFB5  F009         	goto	i2u453_41
  2859   001366  EFB7  F009         	goto	i2u453_40
  2860   00136A                     i2u453_41:
  2861   00136A  EFC0  F009         	goto	i2l1194
  2862   00136E                     i2u453_40:
  2863   00136E  AA9E               	btfss	158,5,c	;volatile
  2864   001370  EFBC  F009         	goto	i2u454_41
  2865   001374  EFBE  F009         	goto	i2u454_40
  2866   001378                     i2u454_41:
  2867   001378  EFC0  F009         	goto	i2l1194
  2868   00137C                     i2u454_40:
  2869   00137C                     
  2870                           ;MCAL_Layer/Interrupt/mcal_interrupt_manager.c: 163:     {;MCAL_Layer/Interrupt/mcal_int
      +                          errupt_manager.c: 164:         USART_RX_ISR();
  2871   00137C  ECC9  F00E         	call	_USART_RX_ISR	;wreg free
  2872   001380                     i2l1194:
  2873                           
  2874                           ;MCAL_Layer/Interrupt/mcal_interrupt_manager.c: 170:     if((1 == PIE1bits.SSPIE) && (1 
      +                          == PIR1bits.SSPIF))
  2875   001380  A69D               	btfss	157,3,c	;volatile
  2876   001382  EFC5  F009         	goto	i2u455_41
  2877   001386  EFC7  F009         	goto	i2u455_40
  2878   00138A                     i2u455_41:
  2879   00138A  EFD0  F009         	goto	i2l1196
  2880   00138E                     i2u455_40:
  2881   00138E  A69E               	btfss	158,3,c	;volatile
  2882   001390  EFCC  F009         	goto	i2u456_41
  2883   001394  EFCE  F009         	goto	i2u456_40
  2884   001398                     i2u456_41:
  2885   001398  EFD0  F009         	goto	i2l1196
  2886   00139C                     i2u456_40:
  2887   00139C                     
  2888                           ;MCAL_Layer/Interrupt/mcal_interrupt_manager.c: 171:     {;MCAL_Layer/Interrupt/mcal_int
      +                          errupt_manager.c: 172:         MSSP_I2C_ISR();
  2889   00139C  ECB9  F00E         	call	_MSSP_I2C_ISR	;wreg free
  2890   0013A0                     i2l1196:
  2891                           
  2892                           ;MCAL_Layer/Interrupt/mcal_interrupt_manager.c: 175:     if((1 == PIE2bits.BCLIE) && (1 
      +                          == PIR2bits.BCLIF))
  2893   0013A0  A6A0               	btfss	160,3,c	;volatile
  2894   0013A2  EFD5  F009         	goto	i2u457_41
  2895   0013A6  EFD7  F009         	goto	i2u457_40
  2896   0013AA                     i2u457_41:
  2897   0013AA  EFE0  F009         	goto	i2l1198
  2898   0013AE                     i2u457_40:
  2899   0013AE  A6A1               	btfss	161,3,c	;volatile
  2900   0013B0  EFDC  F009         	goto	i2u458_41
  2901   0013B4  EFDE  F009         	goto	i2u458_40
  2902   0013B8                     i2u458_41:
  2903   0013B8  EFE0  F009         	goto	i2l1198
  2904   0013BC                     i2u458_40:
  2905   0013BC                     
  2906                           ;MCAL_Layer/Interrupt/mcal_interrupt_manager.c: 176:     {;MCAL_Layer/Interrupt/mcal_int
      +                          errupt_manager.c: 177:         MSSP_I2C_BC_ISR();
  2907   0013BC  ECBB  F00E         	call	_MSSP_I2C_BC_ISR	;wreg free
  2908   0013C0                     i2l1198:
  2909                           
  2910                           ;MCAL_Layer/Interrupt/mcal_interrupt_manager.c: 183:     if((1 == PIE1bits.CCP1IE) && (1
      +                           == PIR1bits.CCP1IF))
  2911   0013C0  A49D               	btfss	157,2,c	;volatile
  2912   0013C2  EFE5  F009         	goto	i2u459_41
  2913   0013C6  EFE7  F009         	goto	i2u459_40
  2914   0013CA                     i2u459_41:
  2915   0013CA  EFF0  F009         	goto	i2l1200
  2916   0013CE                     i2u459_40:
  2917   0013CE  A49E               	btfss	158,2,c	;volatile
  2918   0013D0  EFEC  F009         	goto	i2u460_41
  2919   0013D4  EFEE  F009         	goto	i2u460_40
  2920   0013D8                     i2u460_41:
  2921   0013D8  EFF0  F009         	goto	i2l1200
  2922   0013DC                     i2u460_40:
  2923   0013DC                     
  2924                           ;MCAL_Layer/Interrupt/mcal_interrupt_manager.c: 184:     {;MCAL_Layer/Interrupt/mcal_int
      +                          errupt_manager.c: 185:         CCP1_ISR();
  2925   0013DC  ECC5  F00E         	call	_CCP1_ISR	;wreg free
  2926   0013E0                     i2l1200:
  2927                           
  2928                           ;MCAL_Layer/Interrupt/mcal_interrupt_manager.c: 188:     if((1 == PIE2bits.CCP2IE) && (1
      +                           == PIR2bits.CCP2IF))
  2929   0013E0  A0A0               	btfss	160,0,c	;volatile
  2930   0013E2  EFF5  F009         	goto	i2u461_41
  2931   0013E6  EFF7  F009         	goto	i2u461_40
  2932   0013EA                     i2u461_41:
  2933   0013EA  EF00  F00A         	goto	i2l1203
  2934   0013EE                     i2u461_40:
  2935   0013EE  A0A1               	btfss	161,0,c	;volatile
  2936   0013F0  EFFC  F009         	goto	i2u462_41
  2937   0013F4  EFFE  F009         	goto	i2u462_40
  2938   0013F8                     i2u462_41:
  2939   0013F8  EF00  F00A         	goto	i2l1203
  2940   0013FC                     i2u462_40:
  2941   0013FC                     
  2942                           ;MCAL_Layer/Interrupt/mcal_interrupt_manager.c: 189:     {;MCAL_Layer/Interrupt/mcal_int
      +                          errupt_manager.c: 190:         CCP2_ISR();
  2943   0013FC  ECC3  F00E         	call	_CCP2_ISR	;wreg free
  2944   001400                     i2l1203:
  2945   001400  C04A  FFFB         	movff	??_InterruptManager+1,pclatu
  2946   001404  C049  FFFA         	movff	??_InterruptManager,pclath
  2947   001408  927B               	bcf	int$flags,1,c	;clear compiler interrupt flag (level 2)
  2948   00140A  0011               	retfie		f
  2949   00140C                     __end_of_InterruptManager:
  2950                           	callstack 0
  2951                           
  2952 ;; *************** function _USART_TX_ISR *****************
  2953 ;; Defined at:
  2954 ;;		line 409 in file "MCAL_Layer/USART/hal_usart.c"
  2955 ;; Parameters:    Size  Location     Type
  2956 ;;		None
  2957 ;; Auto vars:     Size  Location     Type
  2958 ;;		None
  2959 ;; Return value:  Size  Location     Type
  2960 ;;                  1    wreg      void 
  2961 ;; Registers used:
  2962 ;;		None
  2963 ;; Tracked objects:
  2964 ;;		On entry : 0/0
  2965 ;;		On exit  : 0/0
  2966 ;;		Unchanged: 0/0
  2967 ;; Data sizes:     COMRAM   BANK0   BANK1   BANK2   BANK3   BANK4   BANK5   BANK6   BANK7   BANK8   BANK9  BANK10  BANK1
      +1  BANK12  BANK13  BANK14  BANK15
  2968 ;;      Params:         0       0       0       0       0       0       0       0       0       0       0       0       
      +0       0       0       0       0
  2969 ;;      Locals:         0       0       0       0       0       0       0       0       0       0       0       0       
      +0       0       0       0       0
  2970 ;;      Temps:          0       0       0       0       0       0       0       0       0       0       0       0       
      +0       0       0       0       0
  2971 ;;      Totals:         0       0       0       0       0       0       0       0       0       0       0       0       
      +0       0       0       0       0
  2972 ;;Total ram usage:        0 bytes
  2973 ;; Hardware stack levels used: 1
  2974 ;; This function calls:
  2975 ;;		Nothing
  2976 ;; This function is called by:
  2977 ;;		_InterruptManager
  2978 ;; This function uses a non-reentrant model
  2979 ;;
  2980                           
  2981                           	psect	text15
  2982   001D6E                     __ptext15:
  2983                           	callstack 0
  2984   001D6E                     _USART_TX_ISR:
  2985                           	callstack 23
  2986   001D6E                     
  2987                           ;MCAL_Layer/USART/hal_usart.c: 412:     (PIE1bits.TXIE = 0);
  2988   001D6E  989D               	bcf	157,4,c	;volatile
  2989   001D70  0012               	return		;funcret
  2990   001D72                     __end_of_USART_TX_ISR:
  2991                           	callstack 0
  2992                           
  2993 ;; *************** function _USART_RX_ISR *****************
  2994 ;; Defined at:
  2995 ;;		line 423 in file "MCAL_Layer/USART/hal_usart.c"
  2996 ;; Parameters:    Size  Location     Type
  2997 ;;		None
  2998 ;; Auto vars:     Size  Location     Type
  2999 ;;		None
  3000 ;; Return value:  Size  Location     Type
  3001 ;;                  1    wreg      void 
  3002 ;; Registers used:
  3003 ;;		wreg, status,2, status,0
  3004 ;; Tracked objects:
  3005 ;;		On entry : 0/0
  3006 ;;		On exit  : 0/0
  3007 ;;		Unchanged: 0/0
  3008 ;; Data sizes:     COMRAM   BANK0   BANK1   BANK2   BANK3   BANK4   BANK5   BANK6   BANK7   BANK8   BANK9  BANK10  BANK1
      +1  BANK12  BANK13  BANK14  BANK15
  3009 ;;      Params:         0       0       0       0       0       0       0       0       0       0       0       0       
      +0       0       0       0       0
  3010 ;;      Locals:         0       0       0       0       0       0       0       0       0       0       0       0       
      +0       0       0       0       0
  3011 ;;      Temps:          0       0       0       0       0       0       0       0       0       0       0       0       
      +0       0       0       0       0
  3012 ;;      Totals:         0       0       0       0       0       0       0       0       0       0       0       0       
      +0       0       0       0       0
  3013 ;;Total ram usage:        0 bytes
  3014 ;; Hardware stack levels used: 1
  3015 ;; This function calls:
  3016 ;;		Nothing
  3017 ;; This function is called by:
  3018 ;;		_InterruptManager
  3019 ;; This function uses a non-reentrant model
  3020 ;;
  3021                           
  3022                           	psect	text16
  3023   001D92                     __ptext16:
  3024                           	callstack 0
  3025   001D92                     _USART_RX_ISR:
  3026                           	callstack 23
  3027   001D92  0012               	return		;funcret
  3028   001D94                     __end_of_USART_RX_ISR:
  3029                           	callstack 0
  3030                           
  3031 ;; *************** function _TMR3_ISR *****************
  3032 ;; Defined at:
  3033 ;;		line 172 in file "MCAL_Layer/Timer3/hal_timer3.c"
  3034 ;; Parameters:    Size  Location     Type
  3035 ;;		None
  3036 ;; Auto vars:     Size  Location     Type
  3037 ;;		None
  3038 ;; Return value:  Size  Location     Type
  3039 ;;                  1    wreg      void 
  3040 ;; Registers used:
  3041 ;;		wreg, status,2
  3042 ;; Tracked objects:
  3043 ;;		On entry : 0/0
  3044 ;;		On exit  : 0/0
  3045 ;;		Unchanged: 0/0
  3046 ;; Data sizes:     COMRAM   BANK0   BANK1   BANK2   BANK3   BANK4   BANK5   BANK6   BANK7   BANK8   BANK9  BANK10  BANK1
      +1  BANK12  BANK13  BANK14  BANK15
  3047 ;;      Params:         0       0       0       0       0       0       0       0       0       0       0       0       
      +0       0       0       0       0
  3048 ;;      Locals:         0       0       0       0       0       0       0       0       0       0       0       0       
      +0       0       0       0       0
  3049 ;;      Temps:          0       0       0       0       0       0       0       0       0       0       0       0       
      +0       0       0       0       0
  3050 ;;      Totals:         0       0       0       0       0       0       0       0       0       0       0       0       
      +0       0       0       0       0
  3051 ;;Total ram usage:        0 bytes
  3052 ;; Hardware stack levels used: 1
  3053 ;; This function calls:
  3054 ;;		Nothing
  3055 ;; This function is called by:
  3056 ;;		_InterruptManager
  3057 ;; This function uses a non-reentrant model
  3058 ;;
  3059                           
  3060                           	psect	text17
  3061   001D44                     __ptext17:
  3062                           	callstack 0
  3063   001D44                     _TMR3_ISR:
  3064                           	callstack 23
  3065   001D44                     
  3066                           ;MCAL_Layer/Timer3/hal_timer3.c: 174:     (PIR2bits.TMR3IF = 0);
  3067   001D44  92A1               	bcf	161,1,c	;volatile
  3068   001D46                     
  3069                           ;MCAL_Layer/Timer3/hal_timer3.c: 175:     TMR3H = (timer3_preload) >> 8;
  3070   001D46  500C               	movf	(_timer3_preload+1)^0,w,c
  3071   001D48  6EB3               	movwf	179,c	;volatile
  3072   001D4A                     
  3073                           ;MCAL_Layer/Timer3/hal_timer3.c: 176:     TMR3L = (uint8)(timer3_preload);
  3074   001D4A  C00B  FFB2         	movff	_timer3_preload,4018	;volatile
  3075   001D4E  0012               	return		;funcret
  3076   001D50                     __end_of_TMR3_ISR:
  3077                           	callstack 0
  3078                           
  3079 ;; *************** function _TMR2_ISR *****************
  3080 ;; Defined at:
  3081 ;;		line 162 in file "MCAL_Layer/Timer2/hal_timer2.c"
  3082 ;; Parameters:    Size  Location     Type
  3083 ;;		None
  3084 ;; Auto vars:     Size  Location     Type
  3085 ;;		None
  3086 ;; Return value:  Size  Location     Type
  3087 ;;                  1    wreg      void 
  3088 ;; Registers used:
  3089 ;;		wreg, status,2, status,0, pcl, pclath, pclatu, tosl, cstack
  3090 ;; Tracked objects:
  3091 ;;		On entry : 0/0
  3092 ;;		On exit  : 0/0
  3093 ;;		Unchanged: 0/0
  3094 ;; Data sizes:     COMRAM   BANK0   BANK1   BANK2   BANK3   BANK4   BANK5   BANK6   BANK7   BANK8   BANK9  BANK10  BANK1
      +1  BANK12  BANK13  BANK14  BANK15
  3095 ;;      Params:         0       0       0       0       0       0       0       0       0       0       0       0       
      +0       0       0       0       0
  3096 ;;      Locals:         0       0       0       0       0       0       0       0       0       0       0       0       
      +0       0       0       0       0
  3097 ;;      Temps:          0       0       0       0       0       0       0       0       0       0       0       0       
      +0       0       0       0       0
  3098 ;;      Totals:         0       0       0       0       0       0       0       0       0       0       0       0       
      +0       0       0       0       0
  3099 ;;Total ram usage:        0 bytes
  3100 ;; Hardware stack levels used: 1
  3101 ;; Hardware stack levels required when called: 1
  3102 ;; This function calls:
  3103 ;;		NULL
  3104 ;;		_Timer2_DefaultInterrruptHandler
  3105 ;; This function is called by:
  3106 ;;		_InterruptManager
  3107 ;; This function uses a non-reentrant model
  3108 ;;
  3109                           
  3110                           	psect	text18
  3111   001C1E                     __ptext18:
  3112                           	callstack 0
  3113   001C1E                     _TMR2_ISR:
  3114                           	callstack 22
  3115   001C1E                     
  3116                           ;MCAL_Layer/Timer2/hal_timer2.c: 164:     (PIR1bits.TMR2IF = 0);
  3117   001C1E  929E               	bcf	158,1,c	;volatile
  3118                           
  3119                           ;MCAL_Layer/Timer2/hal_timer2.c: 165:     TMR2 = timer2_preload;
  3120   001C20  C03B  FFCC         	movff	_timer2_preload,4044	;volatile
  3121   001C24                     
  3122                           ;MCAL_Layer/Timer2/hal_timer2.c: 166:     if(TMR2_InterruptHandler)
  3123   001C24  500D               	movf	_TMR2_InterruptHandler^0,w,c
  3124   001C26  100E               	iorwf	(_TMR2_InterruptHandler+1)^0,w,c
  3125   001C28  B4D8               	btfsc	status,2,c
  3126   001C2A  EF19  F00E         	goto	i2u334_41
  3127   001C2E  EF1B  F00E         	goto	i2u334_40
  3128   001C32                     i2u334_41:
  3129   001C32  EF27  F00E         	goto	i2l1368
  3130   001C36                     i2u334_40:
  3131   001C36                     
  3132                           ;MCAL_Layer/Timer2/hal_timer2.c: 167:     {;MCAL_Layer/Timer2/hal_timer2.c: 168:        
      +                           TMR2_InterruptHandler();
  3133   001C36  D802               	call	i2u335_48
  3134   001C38  EF27  F00E         	goto	i2u335_49
  3135   001C3C                     i2u335_48:
  3136   001C3C  0005               	push	
  3137   001C3E  6EFA               	movwf	pclath,c
  3138   001C40  500D               	movf	_TMR2_InterruptHandler^0,w,c
  3139   001C42  6EFD               	movwf	tosl,c
  3140   001C44  500E               	movf	(_TMR2_InterruptHandler+1)^0,w,c
  3141   001C46  6EFE               	movwf	tosh,c
  3142   001C48  6AFF               	clrf	tosu,c
  3143   001C4A  50FA               	movf	pclath,w,c
  3144   001C4C  0012               	return		;indir
  3145   001C4E                     i2u335_49:
  3146   001C4E                     i2l1368:
  3147   001C4E  0012               	return		;funcret
  3148   001C50                     __end_of_TMR2_ISR:
  3149                           	callstack 0
  3150                           
  3151 ;; *************** function _Timer2_DefaultInterrruptHandler *****************
  3152 ;; Defined at:
  3153 ;;		line 19 in file "application.c"
  3154 ;; Parameters:    Size  Location     Type
  3155 ;;		None
  3156 ;; Auto vars:     Size  Location     Type
  3157 ;;		None
  3158 ;; Return value:  Size  Location     Type
  3159 ;;                  1    wreg      void 
  3160 ;; Registers used:
  3161 ;;		wreg, status,2, status,0
  3162 ;; Tracked objects:
  3163 ;;		On entry : 0/0
  3164 ;;		On exit  : 0/0
  3165 ;;		Unchanged: 0/0
  3166 ;; Data sizes:     COMRAM   BANK0   BANK1   BANK2   BANK3   BANK4   BANK5   BANK6   BANK7   BANK8   BANK9  BANK10  BANK1
      +1  BANK12  BANK13  BANK14  BANK15
  3167 ;;      Params:         0       0       0       0       0       0       0       0       0       0       0       0       
      +0       0       0       0       0
  3168 ;;      Locals:         0       0       0       0       0       0       0       0       0       0       0       0       
      +0       0       0       0       0
  3169 ;;      Temps:          0       0       0       0       0       0       0       0       0       0       0       0       
      +0       0       0       0       0
  3170 ;;      Totals:         0       0       0       0       0       0       0       0       0       0       0       0       
      +0       0       0       0       0
  3171 ;;Total ram usage:        0 bytes
  3172 ;; Hardware stack levels used: 1
  3173 ;; This function calls:
  3174 ;;		Nothing
  3175 ;; This function is called by:
  3176 ;;		_main
  3177 ;;		_TMR2_ISR
  3178 ;; This function uses a non-reentrant model
  3179 ;;
  3180                           
  3181                           	psect	text19
  3182   001D34                     __ptext19:
  3183                           	callstack 0
  3184   001D34                     _Timer2_DefaultInterrruptHandler:
  3185                           	callstack 22
  3186   001D34                     
  3187                           ;application.c: 21:     ++timer2_flag;
  3188   001D34  0E01               	movlw	1
  3189   001D36  0100               	movlb	0	; () banked
  3190   001D38  27A0               	addwf	_timer2_flag& (0+255),f,b	;volatile
  3191   001D3A  0E00               	movlw	0
  3192   001D3C  23A1               	addwfc	(_timer2_flag+1)& (0+255),f,b	;volatile
  3193   001D3E  23A2               	addwfc	(_timer2_flag+2)& (0+255),f,b	;volatile
  3194   001D40  23A3               	addwfc	(_timer2_flag+3)& (0+255),f,b	;volatile
  3195   001D42                     
  3196                           ; BSR set to: 0
  3197   001D42  0012               	return		;funcret
  3198   001D44                     __end_of_Timer2_DefaultInterrruptHandler:
  3199                           	callstack 0
  3200                           
  3201 ;; *************** function _TMR1_ISR *****************
  3202 ;; Defined at:
  3203 ;;		line 172 in file "MCAL_Layer/Timer1/hal_timer1.c"
  3204 ;; Parameters:    Size  Location     Type
  3205 ;;		None
  3206 ;; Auto vars:     Size  Location     Type
  3207 ;;		None
  3208 ;; Return value:  Size  Location     Type
  3209 ;;                  1    wreg      void 
  3210 ;; Registers used:
  3211 ;;		wreg, status,2
  3212 ;; Tracked objects:
  3213 ;;		On entry : 0/0
  3214 ;;		On exit  : 0/0
  3215 ;;		Unchanged: 0/0
  3216 ;; Data sizes:     COMRAM   BANK0   BANK1   BANK2   BANK3   BANK4   BANK5   BANK6   BANK7   BANK8   BANK9  BANK10  BANK1
      +1  BANK12  BANK13  BANK14  BANK15
  3217 ;;      Params:         0       0       0       0       0       0       0       0       0       0       0       0       
      +0       0       0       0       0
  3218 ;;      Locals:         0       0       0       0       0       0       0       0       0       0       0       0       
      +0       0       0       0       0
  3219 ;;      Temps:          0       0       0       0       0       0       0       0       0       0       0       0       
      +0       0       0       0       0
  3220 ;;      Totals:         0       0       0       0       0       0       0       0       0       0       0       0       
      +0       0       0       0       0
  3221 ;;Total ram usage:        0 bytes
  3222 ;; Hardware stack levels used: 1
  3223 ;; This function calls:
  3224 ;;		Nothing
  3225 ;; This function is called by:
  3226 ;;		_InterruptManager
  3227 ;; This function uses a non-reentrant model
  3228 ;;
  3229                           
  3230                           	psect	text20
  3231   001D50                     __ptext20:
  3232                           	callstack 0
  3233   001D50                     _TMR1_ISR:
  3234                           	callstack 23
  3235   001D50                     
  3236                           ;MCAL_Layer/Timer1/hal_timer1.c: 174:     (PIR1bits.TMR1IF = 0);
  3237   001D50  909E               	bcf	158,0,c	;volatile
  3238   001D52                     
  3239                           ;MCAL_Layer/Timer1/hal_timer1.c: 175:     TMR1H = (timer1_preload) >> 8;
  3240   001D52  5012               	movf	(_timer1_preload+1)^0,w,c
  3241   001D54  6ECF               	movwf	207,c	;volatile
  3242   001D56                     
  3243                           ;MCAL_Layer/Timer1/hal_timer1.c: 176:     TMR1L = (uint8)(timer1_preload);
  3244   001D56  C011  FFCE         	movff	_timer1_preload,4046	;volatile
  3245   001D5A  0012               	return		;funcret
  3246   001D5C                     __end_of_TMR1_ISR:
  3247                           	callstack 0
  3248                           
  3249 ;; *************** function _TMR0_ISR *****************
  3250 ;; Defined at:
  3251 ;;		line 186 in file "MCAL_Layer/Timer0/hal_timer0.c"
  3252 ;; Parameters:    Size  Location     Type
  3253 ;;		None
  3254 ;; Auto vars:     Size  Location     Type
  3255 ;;		None
  3256 ;; Return value:  Size  Location     Type
  3257 ;;                  1    wreg      void 
  3258 ;; Registers used:
  3259 ;;		wreg, status,2
  3260 ;; Tracked objects:
  3261 ;;		On entry : 0/0
  3262 ;;		On exit  : 0/0
  3263 ;;		Unchanged: 0/0
  3264 ;; Data sizes:     COMRAM   BANK0   BANK1   BANK2   BANK3   BANK4   BANK5   BANK6   BANK7   BANK8   BANK9  BANK10  BANK1
      +1  BANK12  BANK13  BANK14  BANK15
  3265 ;;      Params:         0       0       0       0       0       0       0       0       0       0       0       0       
      +0       0       0       0       0
  3266 ;;      Locals:         0       0       0       0       0       0       0       0       0       0       0       0       
      +0       0       0       0       0
  3267 ;;      Temps:          0       0       0       0       0       0       0       0       0       0       0       0       
      +0       0       0       0       0
  3268 ;;      Totals:         0       0       0       0       0       0       0       0       0       0       0       0       
      +0       0       0       0       0
  3269 ;;Total ram usage:        0 bytes
  3270 ;; Hardware stack levels used: 1
  3271 ;; This function calls:
  3272 ;;		Nothing
  3273 ;; This function is called by:
  3274 ;;		_InterruptManager
  3275 ;; This function uses a non-reentrant model
  3276 ;;
  3277                           
  3278                           	psect	text21
  3279   001D5C                     __ptext21:
  3280                           	callstack 0
  3281   001D5C                     _TMR0_ISR:
  3282                           	callstack 23
  3283   001D5C                     
  3284                           ;MCAL_Layer/Timer0/hal_timer0.c: 188:     (INTCONbits.TMR0IF = 0);
  3285   001D5C  94F2               	bcf	242,2,c	;volatile
  3286   001D5E                     
  3287                           ;MCAL_Layer/Timer0/hal_timer0.c: 189:     TMR0H = (timer0_preload) >> 8;
  3288   001D5E  5016               	movf	(_timer0_preload+1)^0,w,c
  3289   001D60  6ED7               	movwf	215,c	;volatile
  3290   001D62                     
  3291                           ;MCAL_Layer/Timer0/hal_timer0.c: 190:     TMR0L = (uint8)(timer0_preload);
  3292   001D62  C015  FFD6         	movff	_timer0_preload,4054	;volatile
  3293   001D66  0012               	return		;funcret
  3294   001D68                     __end_of_TMR0_ISR:
  3295                           	callstack 0
  3296                           
  3297 ;; *************** function _RB7_ISR *****************
  3298 ;; Defined at:
  3299 ;;		line 284 in file "MCAL_Layer/Interrupt/mcal_external_interrupt.c"
  3300 ;; Parameters:    Size  Location     Type
  3301 ;;  RB7_Source      1    wreg     unsigned char 
  3302 ;; Auto vars:     Size  Location     Type
  3303 ;;  RB7_Source      1    0[COMRAM] unsigned char 
  3304 ;; Return value:  Size  Location     Type
  3305 ;;                  1    wreg      void 
  3306 ;; Registers used:
  3307 ;;		wreg, status,2, status,0
  3308 ;; Tracked objects:
  3309 ;;		On entry : 0/0
  3310 ;;		On exit  : 0/0
  3311 ;;		Unchanged: 0/0
  3312 ;; Data sizes:     COMRAM   BANK0   BANK1   BANK2   BANK3   BANK4   BANK5   BANK6   BANK7   BANK8   BANK9  BANK10  BANK1
      +1  BANK12  BANK13  BANK14  BANK15
  3313 ;;      Params:         0       0       0       0       0       0       0       0       0       0       0       0       
      +0       0       0       0       0
  3314 ;;      Locals:         1       0       0       0       0       0       0       0       0       0       0       0       
      +0       0       0       0       0
  3315 ;;      Temps:          0       0       0       0       0       0       0       0       0       0       0       0       
      +0       0       0       0       0
  3316 ;;      Totals:         1       0       0       0       0       0       0       0       0       0       0       0       
      +0       0       0       0       0
  3317 ;;Total ram usage:        1 bytes
  3318 ;; Hardware stack levels used: 1
  3319 ;; This function calls:
  3320 ;;		Nothing
  3321 ;; This function is called by:
  3322 ;;		_InterruptManager
  3323 ;; This function uses a non-reentrant model
  3324 ;;
  3325                           
  3326                           	psect	text22
  3327   001CB4                     __ptext22:
  3328                           	callstack 0
  3329   001CB4                     _RB7_ISR:
  3330                           	callstack 23
  3331                           
  3332                           ;incstack = 0
  3333                           ;RB7_ISR@RB7_Source stored from wreg
  3334   001CB4  6E48               	movwf	RB7_ISR@RB7_Source^0,c
  3335   001CB6                     
  3336                           ;MCAL_Layer/Interrupt/mcal_external_interrupt.c: 284: void RB7_ISR(uint8 RB7_Source);MCA
      +                          L_Layer/Interrupt/mcal_external_interrupt.c: 285: {;MCAL_Layer/Interrupt/mcal_external_i
      +                          nterrupt.c: 286:     (INTCONbits.RBIF = 0);
  3337   001CB6  90F2               	bcf	242,0,c	;volatile
  3338   001CB8                     
  3339                           ;MCAL_Layer/Interrupt/mcal_external_interrupt.c: 287:     if(0 == RB7_Source)
  3340   001CB8  5048               	movf	RB7_ISR@RB7_Source^0,w,c
  3341   001CBA  A4D8               	btfss	status,2,c
  3342   001CBC  EF62  F00E         	goto	i2u42_41
  3343   001CC0  EF64  F00E         	goto	i2u42_40
  3344   001CC4                     i2u42_41:
  3345   001CC4  EF66  F00E         	goto	i2l2748
  3346   001CC8                     i2u42_40:
  3347   001CC8  EF66  F00E         	goto	i2l987
  3348   001CCC                     i2l2748:
  3349   001CCC                     i2l987:
  3350   001CCC  0012               	return		;funcret
  3351   001CCE                     __end_of_RB7_ISR:
  3352                           	callstack 0
  3353                           
  3354 ;; *************** function _RB6_ISR *****************
  3355 ;; Defined at:
  3356 ;;		line 264 in file "MCAL_Layer/Interrupt/mcal_external_interrupt.c"
  3357 ;; Parameters:    Size  Location     Type
  3358 ;;  RB6_Source      1    wreg     unsigned char 
  3359 ;; Auto vars:     Size  Location     Type
  3360 ;;  RB6_Source      1    0[COMRAM] unsigned char 
  3361 ;; Return value:  Size  Location     Type
  3362 ;;                  1    wreg      void 
  3363 ;; Registers used:
  3364 ;;		wreg, status,2, status,0
  3365 ;; Tracked objects:
  3366 ;;		On entry : 0/0
  3367 ;;		On exit  : 0/0
  3368 ;;		Unchanged: 0/0
  3369 ;; Data sizes:     COMRAM   BANK0   BANK1   BANK2   BANK3   BANK4   BANK5   BANK6   BANK7   BANK8   BANK9  BANK10  BANK1
      +1  BANK12  BANK13  BANK14  BANK15
  3370 ;;      Params:         0       0       0       0       0       0       0       0       0       0       0       0       
      +0       0       0       0       0
  3371 ;;      Locals:         1       0       0       0       0       0       0       0       0       0       0       0       
      +0       0       0       0       0
  3372 ;;      Temps:          0       0       0       0       0       0       0       0       0       0       0       0       
      +0       0       0       0       0
  3373 ;;      Totals:         1       0       0       0       0       0       0       0       0       0       0       0       
      +0       0       0       0       0
  3374 ;;Total ram usage:        1 bytes
  3375 ;; Hardware stack levels used: 1
  3376 ;; This function calls:
  3377 ;;		Nothing
  3378 ;; This function is called by:
  3379 ;;		_InterruptManager
  3380 ;; This function uses a non-reentrant model
  3381 ;;
  3382                           
  3383                           	psect	text23
  3384   001CCE                     __ptext23:
  3385                           	callstack 0
  3386   001CCE                     _RB6_ISR:
  3387                           	callstack 23
  3388                           
  3389                           ;incstack = 0
  3390                           ;RB6_ISR@RB6_Source stored from wreg
  3391   001CCE  6E48               	movwf	RB6_ISR@RB6_Source^0,c
  3392   001CD0                     
  3393                           ;MCAL_Layer/Interrupt/mcal_external_interrupt.c: 264: void RB6_ISR(uint8 RB6_Source);MCA
      +                          L_Layer/Interrupt/mcal_external_interrupt.c: 265: {;MCAL_Layer/Interrupt/mcal_external_i
      +                          nterrupt.c: 266:     (INTCONbits.RBIF = 0);
  3394   001CD0  90F2               	bcf	242,0,c	;volatile
  3395   001CD2                     
  3396                           ;MCAL_Layer/Interrupt/mcal_external_interrupt.c: 267:     if(0 == RB6_Source)
  3397   001CD2  5048               	movf	RB6_ISR@RB6_Source^0,w,c
  3398   001CD4  A4D8               	btfss	status,2,c
  3399   001CD6  EF6F  F00E         	goto	i2u41_41
  3400   001CDA  EF71  F00E         	goto	i2u41_40
  3401   001CDE                     i2u41_41:
  3402   001CDE  EF73  F00E         	goto	i2l2734
  3403   001CE2                     i2u41_40:
  3404   001CE2  EF73  F00E         	goto	i2l976
  3405   001CE6                     i2l2734:
  3406   001CE6                     i2l976:
  3407   001CE6  0012               	return		;funcret
  3408   001CE8                     __end_of_RB6_ISR:
  3409                           	callstack 0
  3410                           
  3411 ;; *************** function _RB5_ISR *****************
  3412 ;; Defined at:
  3413 ;;		line 244 in file "MCAL_Layer/Interrupt/mcal_external_interrupt.c"
  3414 ;; Parameters:    Size  Location     Type
  3415 ;;  RB5_Source      1    wreg     unsigned char 
  3416 ;; Auto vars:     Size  Location     Type
  3417 ;;  RB5_Source      1    0[COMRAM] unsigned char 
  3418 ;; Return value:  Size  Location     Type
  3419 ;;                  1    wreg      void 
  3420 ;; Registers used:
  3421 ;;		wreg, status,2, status,0
  3422 ;; Tracked objects:
  3423 ;;		On entry : 0/0
  3424 ;;		On exit  : 0/0
  3425 ;;		Unchanged: 0/0
  3426 ;; Data sizes:     COMRAM   BANK0   BANK1   BANK2   BANK3   BANK4   BANK5   BANK6   BANK7   BANK8   BANK9  BANK10  BANK1
      +1  BANK12  BANK13  BANK14  BANK15
  3427 ;;      Params:         0       0       0       0       0       0       0       0       0       0       0       0       
      +0       0       0       0       0
  3428 ;;      Locals:         1       0       0       0       0       0       0       0       0       0       0       0       
      +0       0       0       0       0
  3429 ;;      Temps:          0       0       0       0       0       0       0       0       0       0       0       0       
      +0       0       0       0       0
  3430 ;;      Totals:         1       0       0       0       0       0       0       0       0       0       0       0       
      +0       0       0       0       0
  3431 ;;Total ram usage:        1 bytes
  3432 ;; Hardware stack levels used: 1
  3433 ;; This function calls:
  3434 ;;		Nothing
  3435 ;; This function is called by:
  3436 ;;		_InterruptManager
  3437 ;; This function uses a non-reentrant model
  3438 ;;
  3439                           
  3440                           	psect	text24
  3441   001CE8                     __ptext24:
  3442                           	callstack 0
  3443   001CE8                     _RB5_ISR:
  3444                           	callstack 23
  3445                           
  3446                           ;incstack = 0
  3447                           ;RB5_ISR@RB5_Source stored from wreg
  3448   001CE8  6E48               	movwf	RB5_ISR@RB5_Source^0,c
  3449   001CEA                     
  3450                           ;MCAL_Layer/Interrupt/mcal_external_interrupt.c: 244: void RB5_ISR(uint8 RB5_Source);MCA
      +                          L_Layer/Interrupt/mcal_external_interrupt.c: 245: {;MCAL_Layer/Interrupt/mcal_external_i
      +                          nterrupt.c: 246:     (INTCONbits.RBIF = 0);
  3451   001CEA  90F2               	bcf	242,0,c	;volatile
  3452   001CEC                     
  3453                           ;MCAL_Layer/Interrupt/mcal_external_interrupt.c: 247:     if(0 == RB5_Source)
  3454   001CEC  5048               	movf	RB5_ISR@RB5_Source^0,w,c
  3455   001CEE  A4D8               	btfss	status,2,c
  3456   001CF0  EF7C  F00E         	goto	i2u40_41
  3457   001CF4  EF7E  F00E         	goto	i2u40_40
  3458   001CF8                     i2u40_41:
  3459   001CF8  EF80  F00E         	goto	i2l2720
  3460   001CFC                     i2u40_40:
  3461   001CFC  EF80  F00E         	goto	i2l965
  3462   001D00                     i2l2720:
  3463   001D00                     i2l965:
  3464   001D00  0012               	return		;funcret
  3465   001D02                     __end_of_RB5_ISR:
  3466                           	callstack 0
  3467                           
  3468 ;; *************** function _RB4_ISR *****************
  3469 ;; Defined at:
  3470 ;;		line 224 in file "MCAL_Layer/Interrupt/mcal_external_interrupt.c"
  3471 ;; Parameters:    Size  Location     Type
  3472 ;;  RB4_Source      1    wreg     unsigned char 
  3473 ;; Auto vars:     Size  Location     Type
  3474 ;;  RB4_Source      1    0[COMRAM] unsigned char 
  3475 ;; Return value:  Size  Location     Type
  3476 ;;                  1    wreg      void 
  3477 ;; Registers used:
  3478 ;;		wreg, status,2, status,0
  3479 ;; Tracked objects:
  3480 ;;		On entry : 0/0
  3481 ;;		On exit  : 0/0
  3482 ;;		Unchanged: 0/0
  3483 ;; Data sizes:     COMRAM   BANK0   BANK1   BANK2   BANK3   BANK4   BANK5   BANK6   BANK7   BANK8   BANK9  BANK10  BANK1
      +1  BANK12  BANK13  BANK14  BANK15
  3484 ;;      Params:         0       0       0       0       0       0       0       0       0       0       0       0       
      +0       0       0       0       0
  3485 ;;      Locals:         1       0       0       0       0       0       0       0       0       0       0       0       
      +0       0       0       0       0
  3486 ;;      Temps:          0       0       0       0       0       0       0       0       0       0       0       0       
      +0       0       0       0       0
  3487 ;;      Totals:         1       0       0       0       0       0       0       0       0       0       0       0       
      +0       0       0       0       0
  3488 ;;Total ram usage:        1 bytes
  3489 ;; Hardware stack levels used: 1
  3490 ;; This function calls:
  3491 ;;		Nothing
  3492 ;; This function is called by:
  3493 ;;		_InterruptManager
  3494 ;; This function uses a non-reentrant model
  3495 ;;
  3496                           
  3497                           	psect	text25
  3498   001D02                     __ptext25:
  3499                           	callstack 0
  3500   001D02                     _RB4_ISR:
  3501                           	callstack 23
  3502                           
  3503                           ;incstack = 0
  3504                           ;RB4_ISR@RB4_Source stored from wreg
  3505   001D02  6E48               	movwf	RB4_ISR@RB4_Source^0,c
  3506   001D04                     
  3507                           ;MCAL_Layer/Interrupt/mcal_external_interrupt.c: 224: void RB4_ISR(uint8 RB4_Source);MCA
      +                          L_Layer/Interrupt/mcal_external_interrupt.c: 225: {;MCAL_Layer/Interrupt/mcal_external_i
      +                          nterrupt.c: 226:     (INTCONbits.RBIF = 0);
  3508   001D04  90F2               	bcf	242,0,c	;volatile
  3509   001D06                     
  3510                           ;MCAL_Layer/Interrupt/mcal_external_interrupt.c: 227:     if(0 == RB4_Source)
  3511   001D06  5048               	movf	RB4_ISR@RB4_Source^0,w,c
  3512   001D08  A4D8               	btfss	status,2,c
  3513   001D0A  EF89  F00E         	goto	i2u39_41
  3514   001D0E  EF8B  F00E         	goto	i2u39_40
  3515   001D12                     i2u39_41:
  3516   001D12  EF8D  F00E         	goto	i2l2706
  3517   001D16                     i2u39_40:
  3518   001D16  EF8D  F00E         	goto	i2l954
  3519   001D1A                     i2l2706:
  3520   001D1A                     i2l954:
  3521   001D1A  0012               	return		;funcret
  3522   001D1C                     __end_of_RB4_ISR:
  3523                           	callstack 0
  3524                           
  3525 ;; *************** function _MSSP_I2C_ISR *****************
  3526 ;; Defined at:
  3527 ;;		line 357 in file "MCAL_Layer/I2C/hal_i2c.c"
  3528 ;; Parameters:    Size  Location     Type
  3529 ;;		None
  3530 ;; Auto vars:     Size  Location     Type
  3531 ;;		None
  3532 ;; Return value:  Size  Location     Type
  3533 ;;                  1    wreg      void 
  3534 ;; Registers used:
  3535 ;;		None
  3536 ;; Tracked objects:
  3537 ;;		On entry : 0/0
  3538 ;;		On exit  : 0/0
  3539 ;;		Unchanged: 0/0
  3540 ;; Data sizes:     COMRAM   BANK0   BANK1   BANK2   BANK3   BANK4   BANK5   BANK6   BANK7   BANK8   BANK9  BANK10  BANK1
      +1  BANK12  BANK13  BANK14  BANK15
  3541 ;;      Params:         0       0       0       0       0       0       0       0       0       0       0       0       
      +0       0       0       0       0
  3542 ;;      Locals:         0       0       0       0       0       0       0       0       0       0       0       0       
      +0       0       0       0       0
  3543 ;;      Temps:          0       0       0       0       0       0       0       0       0       0       0       0       
      +0       0       0       0       0
  3544 ;;      Totals:         0       0       0       0       0       0       0       0       0       0       0       0       
      +0       0       0       0       0
  3545 ;;Total ram usage:        0 bytes
  3546 ;; Hardware stack levels used: 1
  3547 ;; This function calls:
  3548 ;;		Nothing
  3549 ;; This function is called by:
  3550 ;;		_InterruptManager
  3551 ;; This function uses a non-reentrant model
  3552 ;;
  3553                           
  3554                           	psect	text26
  3555   001D72                     __ptext26:
  3556                           	callstack 0
  3557   001D72                     _MSSP_I2C_ISR:
  3558                           	callstack 23
  3559   001D72                     
  3560                           ;MCAL_Layer/I2C/hal_i2c.c: 360:     (PIR1bits.SSPIF = 0);
  3561   001D72  969E               	bcf	158,3,c	;volatile
  3562   001D74  0012               	return		;funcret
  3563   001D76                     __end_of_MSSP_I2C_ISR:
  3564                           	callstack 0
  3565                           
  3566 ;; *************** function _MSSP_I2C_BC_ISR *****************
  3567 ;; Defined at:
  3568 ;;		line 372 in file "MCAL_Layer/I2C/hal_i2c.c"
  3569 ;; Parameters:    Size  Location     Type
  3570 ;;		None
  3571 ;; Auto vars:     Size  Location     Type
  3572 ;;		None
  3573 ;; Return value:  Size  Location     Type
  3574 ;;                  1    wreg      void 
  3575 ;; Registers used:
  3576 ;;		None
  3577 ;; Tracked objects:
  3578 ;;		On entry : 0/0
  3579 ;;		On exit  : 0/0
  3580 ;;		Unchanged: 0/0
  3581 ;; Data sizes:     COMRAM   BANK0   BANK1   BANK2   BANK3   BANK4   BANK5   BANK6   BANK7   BANK8   BANK9  BANK10  BANK1
      +1  BANK12  BANK13  BANK14  BANK15
  3582 ;;      Params:         0       0       0       0       0       0       0       0       0       0       0       0       
      +0       0       0       0       0
  3583 ;;      Locals:         0       0       0       0       0       0       0       0       0       0       0       0       
      +0       0       0       0       0
  3584 ;;      Temps:          0       0       0       0       0       0       0       0       0       0       0       0       
      +0       0       0       0       0
  3585 ;;      Totals:         0       0       0       0       0       0       0       0       0       0       0       0       
      +0       0       0       0       0
  3586 ;;Total ram usage:        0 bytes
  3587 ;; Hardware stack levels used: 1
  3588 ;; This function calls:
  3589 ;;		Nothing
  3590 ;; This function is called by:
  3591 ;;		_InterruptManager
  3592 ;; This function uses a non-reentrant model
  3593 ;;
  3594                           
  3595                           	psect	text27
  3596   001D76                     __ptext27:
  3597                           	callstack 0
  3598   001D76                     _MSSP_I2C_BC_ISR:
  3599                           	callstack 23
  3600   001D76                     
  3601                           ;MCAL_Layer/I2C/hal_i2c.c: 375:     (PIR2bits.BCLIF = 0);
  3602   001D76  96A1               	bcf	161,3,c	;volatile
  3603   001D78  0012               	return		;funcret
  3604   001D7A                     __end_of_MSSP_I2C_BC_ISR:
  3605                           	callstack 0
  3606                           
  3607 ;; *************** function _INT2_ISR *****************
  3608 ;; Defined at:
  3609 ;;		line 213 in file "MCAL_Layer/Interrupt/mcal_external_interrupt.c"
  3610 ;; Parameters:    Size  Location     Type
  3611 ;;		None
  3612 ;; Auto vars:     Size  Location     Type
  3613 ;;		None
  3614 ;; Return value:  Size  Location     Type
  3615 ;;                  1    wreg      void 
  3616 ;; Registers used:
  3617 ;;		None
  3618 ;; Tracked objects:
  3619 ;;		On entry : 0/0
  3620 ;;		On exit  : 0/0
  3621 ;;		Unchanged: 0/0
  3622 ;; Data sizes:     COMRAM   BANK0   BANK1   BANK2   BANK3   BANK4   BANK5   BANK6   BANK7   BANK8   BANK9  BANK10  BANK1
      +1  BANK12  BANK13  BANK14  BANK15
  3623 ;;      Params:         0       0       0       0       0       0       0       0       0       0       0       0       
      +0       0       0       0       0
  3624 ;;      Locals:         0       0       0       0       0       0       0       0       0       0       0       0       
      +0       0       0       0       0
  3625 ;;      Temps:          0       0       0       0       0       0       0       0       0       0       0       0       
      +0       0       0       0       0
  3626 ;;      Totals:         0       0       0       0       0       0       0       0       0       0       0       0       
      +0       0       0       0       0
  3627 ;;Total ram usage:        0 bytes
  3628 ;; Hardware stack levels used: 1
  3629 ;; This function calls:
  3630 ;;		Nothing
  3631 ;; This function is called by:
  3632 ;;		_InterruptManager
  3633 ;; This function uses a non-reentrant model
  3634 ;;
  3635                           
  3636                           	psect	text28
  3637   001D7A                     __ptext28:
  3638                           	callstack 0
  3639   001D7A                     _INT2_ISR:
  3640                           	callstack 23
  3641   001D7A                     
  3642                           ;MCAL_Layer/Interrupt/mcal_external_interrupt.c: 215:     (INTCON3bits.INT2IF = 0);
  3643   001D7A  92F0               	bcf	240,1,c	;volatile
  3644   001D7C  0012               	return		;funcret
  3645   001D7E                     __end_of_INT2_ISR:
  3646                           	callstack 0
  3647                           
  3648 ;; *************** function _INT1_ISR *****************
  3649 ;; Defined at:
  3650 ;;		line 203 in file "MCAL_Layer/Interrupt/mcal_external_interrupt.c"
  3651 ;; Parameters:    Size  Location     Type
  3652 ;;		None
  3653 ;; Auto vars:     Size  Location     Type
  3654 ;;		None
  3655 ;; Return value:  Size  Location     Type
  3656 ;;                  1    wreg      void 
  3657 ;; Registers used:
  3658 ;;		None
  3659 ;; Tracked objects:
  3660 ;;		On entry : 0/0
  3661 ;;		On exit  : 0/0
  3662 ;;		Unchanged: 0/0
  3663 ;; Data sizes:     COMRAM   BANK0   BANK1   BANK2   BANK3   BANK4   BANK5   BANK6   BANK7   BANK8   BANK9  BANK10  BANK1
      +1  BANK12  BANK13  BANK14  BANK15
  3664 ;;      Params:         0       0       0       0       0       0       0       0       0       0       0       0       
      +0       0       0       0       0
  3665 ;;      Locals:         0       0       0       0       0       0       0       0       0       0       0       0       
      +0       0       0       0       0
  3666 ;;      Temps:          0       0       0       0       0       0       0       0       0       0       0       0       
      +0       0       0       0       0
  3667 ;;      Totals:         0       0       0       0       0       0       0       0       0       0       0       0       
      +0       0       0       0       0
  3668 ;;Total ram usage:        0 bytes
  3669 ;; Hardware stack levels used: 1
  3670 ;; This function calls:
  3671 ;;		Nothing
  3672 ;; This function is called by:
  3673 ;;		_InterruptManager
  3674 ;; This function uses a non-reentrant model
  3675 ;;
  3676                           
  3677                           	psect	text29
  3678   001D7E                     __ptext29:
  3679                           	callstack 0
  3680   001D7E                     _INT1_ISR:
  3681                           	callstack 23
  3682   001D7E                     
  3683                           ;MCAL_Layer/Interrupt/mcal_external_interrupt.c: 205:     (INTCON3bits.INT1IF = 0);
  3684   001D7E  90F0               	bcf	240,0,c	;volatile
  3685   001D80  0012               	return		;funcret
  3686   001D82                     __end_of_INT1_ISR:
  3687                           	callstack 0
  3688                           
  3689 ;; *************** function _INT0_ISR *****************
  3690 ;; Defined at:
  3691 ;;		line 193 in file "MCAL_Layer/Interrupt/mcal_external_interrupt.c"
  3692 ;; Parameters:    Size  Location     Type
  3693 ;;		None
  3694 ;; Auto vars:     Size  Location     Type
  3695 ;;		None
  3696 ;; Return value:  Size  Location     Type
  3697 ;;                  1    wreg      void 
  3698 ;; Registers used:
  3699 ;;		None
  3700 ;; Tracked objects:
  3701 ;;		On entry : 0/0
  3702 ;;		On exit  : 0/0
  3703 ;;		Unchanged: 0/0
  3704 ;; Data sizes:     COMRAM   BANK0   BANK1   BANK2   BANK3   BANK4   BANK5   BANK6   BANK7   BANK8   BANK9  BANK10  BANK1
      +1  BANK12  BANK13  BANK14  BANK15
  3705 ;;      Params:         0       0       0       0       0       0       0       0       0       0       0       0       
      +0       0       0       0       0
  3706 ;;      Locals:         0       0       0       0       0       0       0       0       0       0       0       0       
      +0       0       0       0       0
  3707 ;;      Temps:          0       0       0       0       0       0       0       0       0       0       0       0       
      +0       0       0       0       0
  3708 ;;      Totals:         0       0       0       0       0       0       0       0       0       0       0       0       
      +0       0       0       0       0
  3709 ;;Total ram usage:        0 bytes
  3710 ;; Hardware stack levels used: 1
  3711 ;; This function calls:
  3712 ;;		Nothing
  3713 ;; This function is called by:
  3714 ;;		_InterruptManager
  3715 ;; This function uses a non-reentrant model
  3716 ;;
  3717                           
  3718                           	psect	text30
  3719   001D82                     __ptext30:
  3720                           	callstack 0
  3721   001D82                     _INT0_ISR:
  3722                           	callstack 23
  3723   001D82                     
  3724                           ;MCAL_Layer/Interrupt/mcal_external_interrupt.c: 195:     (INTCONbits.INT0IF = 0);
  3725   001D82  92F2               	bcf	242,1,c	;volatile
  3726   001D84  0012               	return		;funcret
  3727   001D86                     __end_of_INT0_ISR:
  3728                           	callstack 0
  3729                           
  3730 ;; *************** function _CCP2_ISR *****************
  3731 ;; Defined at:
  3732 ;;		line 401 in file "MCAL_Layer/CCP/hal_ccp.c"
  3733 ;; Parameters:    Size  Location     Type
  3734 ;;		None
  3735 ;; Auto vars:     Size  Location     Type
  3736 ;;		None
  3737 ;; Return value:  Size  Location     Type
  3738 ;;                  1    wreg      void 
  3739 ;; Registers used:
  3740 ;;		None
  3741 ;; Tracked objects:
  3742 ;;		On entry : 0/0
  3743 ;;		On exit  : 0/0
  3744 ;;		Unchanged: 0/0
  3745 ;; Data sizes:     COMRAM   BANK0   BANK1   BANK2   BANK3   BANK4   BANK5   BANK6   BANK7   BANK8   BANK9  BANK10  BANK1
      +1  BANK12  BANK13  BANK14  BANK15
  3746 ;;      Params:         0       0       0       0       0       0       0       0       0       0       0       0       
      +0       0       0       0       0
  3747 ;;      Locals:         0       0       0       0       0       0       0       0       0       0       0       0       
      +0       0       0       0       0
  3748 ;;      Temps:          0       0       0       0       0       0       0       0       0       0       0       0       
      +0       0       0       0       0
  3749 ;;      Totals:         0       0       0       0       0       0       0       0       0       0       0       0       
      +0       0       0       0       0
  3750 ;;Total ram usage:        0 bytes
  3751 ;; Hardware stack levels used: 1
  3752 ;; This function calls:
  3753 ;;		Nothing
  3754 ;; This function is called by:
  3755 ;;		_InterruptManager
  3756 ;; This function uses a non-reentrant model
  3757 ;;
  3758                           
  3759                           	psect	text31
  3760   001D86                     __ptext31:
  3761                           	callstack 0
  3762   001D86                     _CCP2_ISR:
  3763                           	callstack 23
  3764   001D86                     
  3765                           ;MCAL_Layer/CCP/hal_ccp.c: 403:     (PIR2bits.CCP2IF = 0);
  3766   001D86  90A1               	bcf	161,0,c	;volatile
  3767   001D88  0012               	return		;funcret
  3768   001D8A                     __end_of_CCP2_ISR:
  3769                           	callstack 0
  3770                           
  3771 ;; *************** function _CCP1_ISR *****************
  3772 ;; Defined at:
  3773 ;;		line 388 in file "MCAL_Layer/CCP/hal_ccp.c"
  3774 ;; Parameters:    Size  Location     Type
  3775 ;;		None
  3776 ;; Auto vars:     Size  Location     Type
  3777 ;;		None
  3778 ;; Return value:  Size  Location     Type
  3779 ;;                  1    wreg      void 
  3780 ;; Registers used:
  3781 ;;		None
  3782 ;; Tracked objects:
  3783 ;;		On entry : 0/0
  3784 ;;		On exit  : 0/0
  3785 ;;		Unchanged: 0/0
  3786 ;; Data sizes:     COMRAM   BANK0   BANK1   BANK2   BANK3   BANK4   BANK5   BANK6   BANK7   BANK8   BANK9  BANK10  BANK1
      +1  BANK12  BANK13  BANK14  BANK15
  3787 ;;      Params:         0       0       0       0       0       0       0       0       0       0       0       0       
      +0       0       0       0       0
  3788 ;;      Locals:         0       0       0       0       0       0       0       0       0       0       0       0       
      +0       0       0       0       0
  3789 ;;      Temps:          0       0       0       0       0       0       0       0       0       0       0       0       
      +0       0       0       0       0
  3790 ;;      Totals:         0       0       0       0       0       0       0       0       0       0       0       0       
      +0       0       0       0       0
  3791 ;;Total ram usage:        0 bytes
  3792 ;; Hardware stack levels used: 1
  3793 ;; This function calls:
  3794 ;;		Nothing
  3795 ;; This function is called by:
  3796 ;;		_InterruptManager
  3797 ;; This function uses a non-reentrant model
  3798 ;;
  3799                           
  3800                           	psect	text32
  3801   001D8A                     __ptext32:
  3802                           	callstack 0
  3803   001D8A                     _CCP1_ISR:
  3804                           	callstack 23
  3805   001D8A                     
  3806                           ;MCAL_Layer/CCP/hal_ccp.c: 390:     (PIR1bits.CCP1IF = 0);
  3807   001D8A  949E               	bcf	158,2,c	;volatile
  3808   001D8C  0012               	return		;funcret
  3809   001D8E                     __end_of_CCP1_ISR:
  3810                           	callstack 0
  3811                           
  3812 ;; *************** function _ADC_ISR *****************
  3813 ;; Defined at:
  3814 ;;		line 341 in file "MCAL_Layer/ADC/hal_adc.c"
  3815 ;; Parameters:    Size  Location     Type
  3816 ;;		None
  3817 ;; Auto vars:     Size  Location     Type
  3818 ;;		None
  3819 ;; Return value:  Size  Location     Type
  3820 ;;                  1    wreg      void 
  3821 ;; Registers used:
  3822 ;;		None
  3823 ;; Tracked objects:
  3824 ;;		On entry : 0/0
  3825 ;;		On exit  : 0/0
  3826 ;;		Unchanged: 0/0
  3827 ;; Data sizes:     COMRAM   BANK0   BANK1   BANK2   BANK3   BANK4   BANK5   BANK6   BANK7   BANK8   BANK9  BANK10  BANK1
      +1  BANK12  BANK13  BANK14  BANK15
  3828 ;;      Params:         0       0       0       0       0       0       0       0       0       0       0       0       
      +0       0       0       0       0
  3829 ;;      Locals:         0       0       0       0       0       0       0       0       0       0       0       0       
      +0       0       0       0       0
  3830 ;;      Temps:          0       0       0       0       0       0       0       0       0       0       0       0       
      +0       0       0       0       0
  3831 ;;      Totals:         0       0       0       0       0       0       0       0       0       0       0       0       
      +0       0       0       0       0
  3832 ;;Total ram usage:        0 bytes
  3833 ;; Hardware stack levels used: 1
  3834 ;; This function calls:
  3835 ;;		Nothing
  3836 ;; This function is called by:
  3837 ;;		_InterruptManager
  3838 ;; This function uses a non-reentrant model
  3839 ;;
  3840                           
  3841                           	psect	text33
  3842   001D8E                     __ptext33:
  3843                           	callstack 0
  3844   001D8E                     _ADC_ISR:
  3845                           	callstack 23
  3846   001D8E                     
  3847                           ;MCAL_Layer/ADC/hal_adc.c: 343:     (PIR1bits.ADIF = 0);
  3848   001D8E  9C9E               	bcf	158,6,c	;volatile
  3849   001D90  0012               	return		;funcret
  3850   001D92                     __end_of_ADC_ISR:
  3851                           	callstack 0
  3852                           
  3853                           	psect	text34
  3854   000000                     __ptext34:
  3855                           	callstack 0
  3856   000000                     
  3857                           	psect	rparam
  3858   000000                     
  3859                           	psect	temp
  3860   00007B                     btemp:
  3861                           	callstack 0
  3862   00007B                     	ds	1
  3863   000000                     int$flags	set	btemp
  3864   000000                     wtemp8	set	btemp+1
  3865   000000                     ttemp5	set	btemp+1
  3866   000000                     ttemp6	set	btemp+4
  3867   000000                     ttemp7	set	btemp+8
  3868                           
  3869                           	psect	idloc
  3870                           
  3871                           ;Config register IDLOC0 @ 0x200000
  3872                           ;	unspecified, using default values
  3873   200000                     	org	2097152
  3874   200000  FF                 	db	255
  3875                           
  3876                           ;Config register IDLOC1 @ 0x200001
  3877                           ;	unspecified, using default values
  3878   200001                     	org	2097153
  3879   200001  FF                 	db	255
  3880                           
  3881                           ;Config register IDLOC2 @ 0x200002
  3882                           ;	unspecified, using default values
  3883   200002                     	org	2097154
  3884   200002  FF                 	db	255
  3885                           
  3886                           ;Config register IDLOC3 @ 0x200003
  3887                           ;	unspecified, using default values
  3888   200003                     	org	2097155
  3889   200003  FF                 	db	255
  3890                           
  3891                           ;Config register IDLOC4 @ 0x200004
  3892                           ;	unspecified, using default values
  3893   200004                     	org	2097156
  3894   200004  FF                 	db	255
  3895                           
  3896                           ;Config register IDLOC5 @ 0x200005
  3897                           ;	unspecified, using default values
  3898   200005                     	org	2097157
  3899   200005  FF                 	db	255
  3900                           
  3901                           ;Config register IDLOC6 @ 0x200006
  3902                           ;	unspecified, using default values
  3903   200006                     	org	2097158
  3904   200006  FF                 	db	255
  3905                           
  3906                           ;Config register IDLOC7 @ 0x200007
  3907                           ;	unspecified, using default values
  3908   200007                     	org	2097159
  3909   200007  FF                 	db	255
  3910                           
  3911                           	psect	config
  3912                           
  3913                           ; Padding undefined space
  3914   300000                     	org	3145728
  3915   300000  FF                 	db	255
  3916                           
  3917                           ;Config register CONFIG1H @ 0x300001
  3918                           ;	Oscillator Selection bits
  3919                           ;	OSC = HS, HS oscillator
  3920                           ;	Fail-Safe Clock Monitor Enable bit
  3921                           ;	FCMEN = OFF, Fail-Safe Clock Monitor disabled
  3922                           ;	Internal/External Oscillator Switchover bit
  3923                           ;	IESO = OFF, Oscillator Switchover mode disabled
  3924   300001                     	org	3145729
  3925   300001  02                 	db	2
  3926                           
  3927                           ;Config register CONFIG2L @ 0x300002
  3928                           ;	Power-up Timer Enable bit
  3929                           ;	PWRT = OFF, PWRT disabled
  3930                           ;	Brown-out Reset Enable bits
  3931                           ;	BOREN = OFF, Brown-out Reset disabled in hardware and software
  3932                           ;	Brown Out Reset Voltage bits
  3933                           ;	BORV = 1, 
  3934   300002                     	org	3145730
  3935   300002  09                 	db	9
  3936                           
  3937                           ;Config register CONFIG2H @ 0x300003
  3938                           ;	Watchdog Timer Enable bit
  3939                           ;	WDT = OFF, WDT disabled (control is placed on the SWDTEN bit)
  3940                           ;	Watchdog Timer Postscale Select bits
  3941                           ;	WDTPS = 512, 1:512
  3942   300003                     	org	3145731
  3943   300003  12                 	db	18
  3944                           
  3945                           ; Padding undefined space
  3946   300004                     	org	3145732
  3947   300004  FF                 	db	255
  3948                           
  3949                           ;Config register CONFIG3H @ 0x300005
  3950                           ;	CCP2 MUX bit
  3951                           ;	CCP2MX = PORTC, CCP2 input/output is multiplexed with RC1
  3952                           ;	PORTB A/D Enable bit
  3953                           ;	PBADEN = OFF, PORTB<4:0> pins are configured as digital I/O on Reset
  3954                           ;	Low-Power Timer1 Oscillator Enable bit
  3955                           ;	LPT1OSC = OFF, Timer1 configured for higher power operation
  3956                           ;	MCLR Pin Enable bit
  3957                           ;	MCLRE = ON, MCLR pin enabled; RE3 input pin disabled
  3958   300005                     	org	3145733
  3959   300005  81                 	db	129
  3960                           
  3961                           ;Config register CONFIG4L @ 0x300006
  3962                           ;	Stack Full/Underflow Reset Enable bit
  3963                           ;	STVREN = ON, Stack full/underflow will cause Reset
  3964                           ;	Single-Supply ICSP Enable bit
  3965                           ;	LVP = OFF, Single-Supply ICSP disabled
  3966                           ;	Extended Instruction Set Enable bit
  3967                           ;	XINST = OFF, Instruction set extension and Indexed Addressing mode disabled (Legacy mo
      +                          de)
  3968                           ;	Background Debugger Enable bit
  3969                           ;	DEBUG = 0x1, unprogrammed default
  3970   300006                     	org	3145734
  3971   300006  81                 	db	129
  3972                           
  3973                           ; Padding undefined space
  3974   300007                     	org	3145735
  3975   300007  FF                 	db	255
  3976                           
  3977                           ;Config register CONFIG5L @ 0x300008
  3978                           ;	Code Protection bit
  3979                           ;	CP0 = OFF, Block 0 (000800-003FFFh) not code-protected
  3980                           ;	Code Protection bit
  3981                           ;	CP1 = OFF, Block 1 (004000-007FFFh) not code-protected
  3982                           ;	Code Protection bit
  3983                           ;	CP2 = OFF, Block 2 (008000-00BFFFh) not code-protected
  3984                           ;	Code Protection bit
  3985                           ;	CP3 = OFF, Block 3 (00C000-00FFFFh) not code-protected
  3986   300008                     	org	3145736
  3987   300008  0F                 	db	15
  3988                           
  3989                           ;Config register CONFIG5H @ 0x300009
  3990                           ;	Boot Block Code Protection bit
  3991                           ;	CPB = OFF, Boot block (000000-0007FFh) not code-protected
  3992                           ;	Data EEPROM Code Protection bit
  3993                           ;	CPD = OFF, Data EEPROM not code-protected
  3994   300009                     	org	3145737
  3995   300009  C0                 	db	192
  3996                           
  3997                           ;Config register CONFIG6L @ 0x30000A
  3998                           ;	Write Protection bit
  3999                           ;	WRT0 = OFF, Block 0 (000800-003FFFh) not write-protected
  4000                           ;	Write Protection bit
  4001                           ;	WRT1 = OFF, Block 1 (004000-007FFFh) not write-protected
  4002                           ;	Write Protection bit
  4003                           ;	WRT2 = OFF, Block 2 (008000-00BFFFh) not write-protected
  4004                           ;	Write Protection bit
  4005                           ;	WRT3 = OFF, Block 3 (00C000-00FFFFh) not write-protected
  4006   30000A                     	org	3145738
  4007   30000A  0F                 	db	15
  4008                           
  4009                           ;Config register CONFIG6H @ 0x30000B
  4010                           ;	Configuration Register Write Protection bit
  4011                           ;	WRTC = OFF, Configuration registers (300000-3000FFh) not write-protected
  4012                           ;	Boot Block Write Protection bit
  4013                           ;	WRTB = OFF, Boot Block (000000-0007FFh) not write-protected
  4014                           ;	Data EEPROM Write Protection bit
  4015                           ;	WRTD = OFF, Data EEPROM not write-protected
  4016   30000B                     	org	3145739
  4017   30000B  E0                 	db	224
  4018                           
  4019                           ;Config register CONFIG7L @ 0x30000C
  4020                           ;	Table Read Protection bit
  4021                           ;	EBTR0 = OFF, Block 0 (000800-003FFFh) not protected from table reads executed in other
      +                           blocks
  4022                           ;	Table Read Protection bit
  4023                           ;	EBTR1 = OFF, Block 1 (004000-007FFFh) not protected from table reads executed in other
      +                           blocks
  4024                           ;	Table Read Protection bit
  4025                           ;	EBTR2 = OFF, Block 2 (008000-00BFFFh) not protected from table reads executed in other
      +                           blocks
  4026                           ;	Table Read Protection bit
  4027                           ;	EBTR3 = OFF, Block 3 (00C000-00FFFFh) not protected from table reads executed in other
      +                           blocks
  4028   30000C                     	org	3145740
  4029   30000C  0F                 	db	15
  4030                           
  4031                           ;Config register CONFIG7H @ 0x30000D
  4032                           ;	Boot Block Table Read Protection bit
  4033                           ;	EBTRB = OFF, Boot Block (000000-0007FFh) not protected from table reads executed in ot
      +                          her blocks
  4034   30000D                     	org	3145741
  4035   30000D  40                 	db	64
  4036                           tosu	equ	0xFFF
  4037                           tosh	equ	0xFFE
  4038                           tosl	equ	0xFFD
  4039                           stkptr	equ	0xFFC
  4040                           pclatu	equ	0xFFB
  4041                           pclath	equ	0xFFA
  4042                           pcl	equ	0xFF9
  4043                           tblptru	equ	0xFF8
  4044                           tblptrh	equ	0xFF7
  4045                           tblptrl	equ	0xFF6
  4046                           tablat	equ	0xFF5
  4047                           prodh	equ	0xFF4
  4048                           prodl	equ	0xFF3
  4049                           indf0	equ	0xFEF
  4050                           postinc0	equ	0xFEE
  4051                           postdec0	equ	0xFED
  4052                           preinc0	equ	0xFEC
  4053                           plusw0	equ	0xFEB
  4054                           fsr0h	equ	0xFEA
  4055                           fsr0l	equ	0xFE9
  4056                           wreg	equ	0xFE8
  4057                           indf1	equ	0xFE7
  4058                           postinc1	equ	0xFE6
  4059                           postdec1	equ	0xFE5
  4060                           preinc1	equ	0xFE4
  4061                           plusw1	equ	0xFE3
  4062                           fsr1h	equ	0xFE2
  4063                           fsr1l	equ	0xFE1
  4064                           bsr	equ	0xFE0
  4065                           indf2	equ	0xFDF
  4066                           postinc2	equ	0xFDE
  4067                           postdec2	equ	0xFDD
  4068                           preinc2	equ	0xFDC
  4069                           plusw2	equ	0xFDB
  4070                           fsr2h	equ	0xFDA
  4071                           fsr2l	equ	0xFD9
  4072                           status	equ	0xFD8

Data Sizes:
    Strings     3
    Constant    16
    Data        50
    BSS         81
    Persistent  0
    Stack       0

Auto Spaces:
    Space          Size  Autos    Used
    COMRAM          126     27     122
    BANK0           128      4      40
    BANK1           256      0       0
    BANK2           256      0       0
    BANK3           256      0       0
    BANK4           256      0       0
    BANK5           256      0       0
    BANK6           256      0       0
    BANK7           256      0       0
    BANK8           256      0       0
    BANK9           256      0       0
    BANK10          256      0       0
    BANK11          256      0       0
    BANK12          256      0       0
    BANK13          256      0       0
    BANK14          256      0       0
    BANK15          128      0       0

Pointer List with Targets:

    vfprintf$2	PTR PTR void  size(2) Largest target is 2
		 -> sprintf@ap(COMRAM[2]), 

    vfprintf$1	PTR const unsigned char  size(2) Largest target is 3
		 -> STR_3(CODE[3]), STR_2(CODE[3]), STR_1(CODE[3]), 

    vfprintf$0	PTR struct _IO_FILE size(2) Largest target is 12
		 -> sprintf@f(COMRAM[12]), 

    CCP_PMW_MODE_CONFIG$0	PTR const struct . size(2) Largest target is 0

    S4497$source	PTR const unsigned char  size(2) Largest target is 0

    f...source	PTR const unsigned char  size(2) Largest target is 0

    S4497$buffer	PTR unsigned char  size(2) Largest target is 0

    f...buffer	PTR unsigned char  size(2) Largest target is 0

    timer2_obj.TMR2_InterruptHandler	PTR FTN()void  size(2) Largest target is 1
		 -> Timer2_DefaultInterrruptHandler(), 

    USART_OverrunErrorHandler	PTR FTN()void  size(2) Largest target is 1
		 -> NULL(), 

    USART_FramingErrorHandler	PTR FTN()void  size(2) Largest target is 1
		 -> NULL(), 

    USART_RxDefaultInterruptHandler	PTR FTN()void  size(2) Largest target is 1
		 -> NULL(), 

    USART_ASYNCRONOUS_RX_Init@_usart.USART_OverrunErrorHandler	PTR FTN()void  size(2) Largest target is 0

    USART_ASYNCRONOUS_RX_Init@_usart.USART_FramingErrorHandler	PTR FTN()void  size(2) Largest target is 0

    USART_ASYNCRONOUS_RX_Init@_usart.USART_RxDefaultInterruptHandler	PTR FTN()void  size(2) Largest target is 0

    USART_ASYNCRONOUS_RX_Init@_usart.USART_TxDefaultInterruptHandler	PTR FTN()void  size(2) Largest target is 0

    USART_TxDefaultInterruptHandler	PTR FTN()void  size(2) Largest target is 1
		 -> NULL(), 

    USART_ASYNCRONOUS_TX_Init@_usart.USART_OverrunErrorHandler	PTR FTN()void  size(2) Largest target is 0

    USART_ASYNCRONOUS_TX_Init@_usart.USART_FramingErrorHandler	PTR FTN()void  size(2) Largest target is 0

    USART_ASYNCRONOUS_TX_Init@_usart.USART_RxDefaultInterruptHandler	PTR FTN()void  size(2) Largest target is 0

    USART_ASYNCRONOUS_TX_Init@_usart.USART_TxDefaultInterruptHandler	PTR FTN()void  size(2) Largest target is 0

    S3608$USART_OverrunErrorHandler	PTR FTN()void  size(2) Largest target is 0

    USART_Baud_Rate_Calculation@_usart.USART_OverrunErrorHandler	PTR FTN()void  size(2) Largest target is 0

    S3608$USART_FramingErrorHandler	PTR FTN()void  size(2) Largest target is 0

    USART_Baud_Rate_Calculation@_usart.USART_FramingErrorHandler	PTR FTN()void  size(2) Largest target is 0

    S3608$USART_RxDefaultInterruptHandler	PTR FTN()void  size(2) Largest target is 0

    USART_Baud_Rate_Calculation@_usart.USART_RxDefaultInterruptHandler	PTR FTN()void  size(2) Largest target is 0

    S3608$USART_TxDefaultInterruptHandler	PTR FTN()void  size(2) Largest target is 0

    USART_Baud_Rate_Calculation@_usart.USART_TxDefaultInterruptHandler	PTR FTN()void  size(2) Largest target is 0

    Timer3_Mode_Selection@_timer.TMR3_InterruptHandler	PTR FTN()void  size(2) Largest target is 0

    TMR3_InterruptHandler	PTR FTN()void  size(2) Largest target is 1
		 -> NULL(), 

    S3414$TMR3_InterruptHandler	PTR FTN()void  size(2) Largest target is 0

    Timer3_Init@_timer.TMR3_InterruptHandler	PTR FTN()void  size(2) Largest target is 0

    TMR2_InterruptHandler	PTR FTN()void  size(2) Largest target is 1
		 -> Timer2_DefaultInterrruptHandler(), NULL(), 

    S3283$TMR2_InterruptHandler	PTR FTN()void  size(2) Largest target is 1
		 -> Timer2_DefaultInterrruptHandler(), 

    Timer2_Init@_timer.TMR2_InterruptHandler	PTR FTN()void  size(2) Largest target is 1
		 -> Timer2_DefaultInterrruptHandler(), 

    Timer2_Init@_timer	PTR const struct . size(2) Largest target is 5
		 -> timer2_obj(COMRAM[5]), 

    Timer1_Mode_Selection@_timer.TMR1_InterruptHandler	PTR FTN()void  size(2) Largest target is 0

    TMR1_InterruptHandler	PTR FTN()void  size(2) Largest target is 1
		 -> NULL(), 

    S3094$TMR1_InterruptHandler	PTR FTN()void  size(2) Largest target is 0

    Timer1_Init@_timer.TMR1_InterruptHandler	PTR FTN()void  size(2) Largest target is 0

    Timer0_Reigster_Size_Config@_timer.TMR0_InterruptHandler	PTR FTN()void  size(2) Largest target is 0

    Timer0_Mode_Selection@_timer.TMR0_InterruptHandler	PTR FTN()void  size(2) Largest target is 0

    Timer0_Prescaler_Config@_timer.TMR0_InterruptHandler	PTR FTN()void  size(2) Largest target is 0

    TMR0_InterruptHandler	PTR FTN()void  size(2) Largest target is 1
		 -> NULL(), 

    S2929$TMR0_InterruptHandler	PTR FTN()void  size(2) Largest target is 0

    Timer0_Init@_timer.TMR0_InterruptHandler	PTR FTN()void  size(2) Largest target is 0

    Interrupt_INTx_SetInterruptHandler@int_obj.EXT_InterruptHandler	PTR FTN()void  size(2) Largest target is 0

    Interrupt_INTx_Clear_Flag@int_obj.EXT_InterruptHandler	PTR FTN()void  size(2) Largest target is 0

    Interrupt_INTx_Pin_Init@int_obj.EXT_InterruptHandler	PTR FTN()void  size(2) Largest target is 0

    Interrupt_INTx_Edge_Init@int_obj.EXT_InterruptHandler	PTR FTN()void  size(2) Largest target is 0

    Interrupt_INTx_Disable@int_obj.EXT_InterruptHandler	PTR FTN()void  size(2) Largest target is 0

    S2321$EXT_InterruptHandler	PTR FTN()void  size(2) Largest target is 0

    Interrupt_INTx_Enable@int_obj.EXT_InterruptHandler	PTR FTN()void  size(2) Largest target is 0

    S2437$EXT_InterruptHandler_LOW	PTR FTN()void  size(2) Largest target is 0

    Interrupt_RBx_Init@int_obj.EXT_InterruptHandler_LOW	PTR FTN()void  size(2) Largest target is 0

    S2437$EXT_InterruptHandler_HIGH	PTR FTN()void  size(2) Largest target is 0

    Interrupt_RBx_Init@int_obj.EXT_InterruptHandler_HIGH	PTR FTN()void  size(2) Largest target is 0

    RB7_InterruptHandler_LOW	PTR FTN()void  size(2) Largest target is 1
		 -> NULL(), 

    RB7_InterruptHandler_HIGH	PTR FTN()void  size(2) Largest target is 1
		 -> NULL(), 

    RB6_InterruptHandler_LOW	PTR FTN()void  size(2) Largest target is 1
		 -> NULL(), 

    RB6_InterruptHandler_HIGH	PTR FTN()void  size(2) Largest target is 1
		 -> NULL(), 

    RB5_InterruptHandler_LOW	PTR FTN()void  size(2) Largest target is 1
		 -> NULL(), 

    RB5_InterruptHandler_HIGH	PTR FTN()void  size(2) Largest target is 1
		 -> NULL(), 

    RB4_InterruptHandler_LOW	PTR FTN()void  size(2) Largest target is 1
		 -> NULL(), 

    RB4_InterruptHandler_HIGH	PTR FTN()void  size(2) Largest target is 1
		 -> NULL(), 

    INT2_InterruptHandler	PTR FTN()void  size(2) Largest target is 1
		 -> NULL(), 

    INT1_InterruptHandler	PTR FTN()void  size(2) Largest target is 1
		 -> NULL(), 

    INT0_InterruptHandler	PTR FTN()void  size(2) Largest target is 1
		 -> NULL(), 

    MSSP_I2C_Bus_Collision_Interrupt_Configurations@_i2c.MSSP_I2C_Report_Receive_Overflow	PTR FTN()void  size(2) Largest target is 0

    MSSP_I2C_Bus_Collision_Interrupt_Configurations@_i2c.MSSP_I2C_Report_Write_Collision	PTR FTN()void  size(2) Largest target is 0

    MSSP_I2C_Bus_Collision_Interrupt_Configurations@_i2c.MSSP_I2C_DefaultInterruptHandler	PTR FTN()void  size(2) Largest target is 0

    MSSP_I2C_Interrupt_Configurations@_i2c.MSSP_I2C_Report_Receive_Overflow	PTR FTN()void  size(2) Largest target is 0

    MSSP_I2C_Interrupt_Configurations@_i2c.MSSP_I2C_Report_Write_Collision	PTR FTN()void  size(2) Largest target is 0

    MSSP_I2C_Interrupt_Configurations@_i2c.MSSP_I2C_DefaultInterruptHandler	PTR FTN()void  size(2) Largest target is 0

    MSSP_I2C_Report_Receive_Overflow_InterruptHandler	PTR FTN()void  size(2) Largest target is 1
		 -> NULL(), 

    MSSP_I2C_Slave_Mode_Configurations@_i2c.MSSP_I2C_Report_Receive_Overflow	PTR FTN()void  size(2) Largest target is 0

    MSSP_I2C_Slave_Mode_Configurations@_i2c.MSSP_I2C_Report_Write_Collision	PTR FTN()void  size(2) Largest target is 0

    MSSP_I2C_Slave_Mode_Configurations@_i2c.MSSP_I2C_DefaultInterruptHandler	PTR FTN()void  size(2) Largest target is 0

    MSSP_I2C_Master_Mode_Clock_Configurations@_i2c.MSSP_I2C_Report_Receive_Overflow	PTR FTN()void  size(2) Largest target is 0

    MSSP_I2C_Master_Mode_Clock_Configurations@_i2c.MSSP_I2C_Report_Write_Collision	PTR FTN()void  size(2) Largest target is 0

    MSSP_I2C_Master_Mode_Clock_Configurations@_i2c.MSSP_I2C_DefaultInterruptHandler	PTR FTN()void  size(2) Largest target is 0

    MSSP_I2C_Report_Write_Collision_InterruptHandler	PTR FTN()void  size(2) Largest target is 1
		 -> NULL(), 

    MSSP_I2C_DefaultInterruptHandler	PTR FTN()void  size(2) Largest target is 1
		 -> NULL(), 

    S1796$MSSP_I2C_Report_Receive_Overflow	PTR FTN()void  size(2) Largest target is 0

    MSSP_I2C_Initialize@_i2c.MSSP_I2C_Report_Receive_Overflow	PTR FTN()void  size(2) Largest target is 0

    S1796$MSSP_I2C_Report_Write_Collision	PTR FTN()void  size(2) Largest target is 0

    MSSP_I2C_Initialize@_i2c.MSSP_I2C_Report_Write_Collision	PTR FTN()void  size(2) Largest target is 0

    S1796$MSSP_I2C_DefaultInterruptHandler	PTR FTN()void  size(2) Largest target is 0

    MSSP_I2C_Initialize@_i2c.MSSP_I2C_DefaultInterruptHandler	PTR FTN()void  size(2) Largest target is 0

    gpio_pin_intialize@_pin_config	PTR const struct . size(2) Largest target is 10
		 -> lcd_2.lcd_data(BANK0[8]), lcd_2(BANK0[10]), lcd_1.lcd_data(BANK0[4]), lcd_1(BANK0[6]), 
		 -> relay_initialize@pin_obj(COMRAM[1]), led_initialize@pin_obj(COMRAM[1]), 

    gpio_pin_write_logic@_pin_config	PTR const struct . size(2) Largest target is 10
		 -> lcd_2.lcd_data(BANK0[8]), lcd_2(BANK0[10]), lcd_1.lcd_data(BANK0[4]), lcd_1(BANK0[6]), 
		 -> relay_turn_off@pin_obj(COMRAM[1]), relay_turn_on@pin_obj(COMRAM[1]), relay_initialize@pin_obj(COMRAM[1]), led_turn_off@pin_obj(COMRAM[1]), 
		 -> led_turn_on@pin_obj(COMRAM[1]), led_initialize@pin_obj(COMRAM[1]), 

    gpio_pin_direction_intialize@_pin_config	PTR const struct . size(2) Largest target is 10
		 -> lcd_2.lcd_data(BANK0[8]), lcd_2(BANK0[10]), lcd_1.lcd_data(BANK0[4]), lcd_1(BANK0[6]), 
		 -> relay_initialize@pin_obj(COMRAM[1]), led_initialize@pin_obj(COMRAM[1]), 

    port_registers	PTR volatile unsigned char [5] size(2) Largest target is 1
		 -> PORTE(BITBIGSFRlllll[1]), PORTD(BITBIGSFRlllll[1]), PORTC(BITBIGSFRlllll[1]), PORTB(BITBIGSFRlllll[1]), 
		 -> PORTA(BITBIGSFRlllll[1]), 

    lat_registers	PTR volatile unsigned char [5] size(2) Largest target is 1
		 -> LATE(BITBIGSFRllllh[1]), LATD(BITBIGSFRllllh[1]), LATC(BITBIGSFRllllh[1]), LATB(BITBIGSFRllllh[1]), 
		 -> LATA(BITBIGSFRlllll[1]), 

    tris_registers	PTR volatile unsigned char [5] size(2) Largest target is 1
		 -> TRISD(ABS[1]), TRISC(ABS[1]), TRISB(ABS[1]), TRISE(ABS[1]), 
		 -> TRISA(BITBIGSFRlllll[1]), 

    CCP_Compare_Mode_Config@_ccp_obj.CCP2_InterruptHandler	PTR FTN()void  size(2) Largest target is 0

    CCP_Compare_Mode_Config@_ccp_obj.CCP1_InterruptHandler	PTR FTN()void  size(2) Largest target is 0

    CCP_Capture_Mode_Config@_ccp_obj.CCP2_InterruptHandler	PTR FTN()void  size(2) Largest target is 0

    CCP_Capture_Mode_Config@_ccp_obj.CCP1_InterruptHandler	PTR FTN()void  size(2) Largest target is 0

    CCP_Mode_Timer_Selection@_ccp_obj.CCP2_InterruptHandler	PTR FTN()void  size(2) Largest target is 0

    CCP_Mode_Timer_Selection@_ccp_obj.CCP1_InterruptHandler	PTR FTN()void  size(2) Largest target is 0

    CCP_Interrupt_Config@_ccp_obj.CCP2_InterruptHandler	PTR FTN()void  size(2) Largest target is 0

    CCP_Interrupt_Config@_ccp_obj.CCP1_InterruptHandler	PTR FTN()void  size(2) Largest target is 0

    CCP2_InterruptHandler	PTR FTN()void  size(2) Largest target is 1
		 -> NULL(), 

    CCP1_InterruptHandler	PTR FTN()void  size(2) Largest target is 1
		 -> NULL(), 

    CCP_Set_Compare_Mode_Value@_ccp_obj.CCP2_InterruptHandler	PTR FTN()void  size(2) Largest target is 0

    CCP_Set_Compare_Mode_Value@_ccp_obj.CCP1_InterruptHandler	PTR FTN()void  size(2) Largest target is 0

    CCP_DeInit@_ccp_obj.CCP2_InterruptHandler	PTR FTN()void  size(2) Largest target is 0

    CCP_DeInit@_ccp_obj.CCP1_InterruptHandler	PTR FTN()void  size(2) Largest target is 0

    S1142$CCP2_InterruptHandler	PTR FTN()void  size(2) Largest target is 0

    CCP_Init@_ccp_obj.CCP2_InterruptHandler	PTR FTN()void  size(2) Largest target is 0

    S1142$CCP1_InterruptHandler	PTR FTN()void  size(2) Largest target is 0

    CCP_Init@_ccp_obj.CCP1_InterruptHandler	PTR FTN()void  size(2) Largest target is 0

    configure_voltage_reference@_adc.ADC_InterruptHandler	PTR FTN()void  size(2) Largest target is 0

    select_result_format@_adc.ADC_InterruptHandler	PTR FTN()void  size(2) Largest target is 0

    ADC_GetConversionResult@_adc.ADC_InterruptHandler	PTR FTN()void  size(2) Largest target is 0

    ADC_InterruptHandler	PTR FTN()void  size(2) Largest target is 1
		 -> NULL(), 

    S723$ADC_InterruptHandler	PTR FTN()void  size(2) Largest target is 0

    ADC_Init@_adc.ADC_InterruptHandler	PTR FTN()void  size(2) Largest target is 0

    lcd_8bit_send_enable_signal@lcd	PTR const struct . size(2) Largest target is 10
		 -> lcd_2(BANK0[10]), 

    lcd_4bit_send_enable_signal@lcd	PTR const struct . size(2) Largest target is 6
		 -> lcd_1(BANK0[6]), 

    lcd_send_4bits@lcd	PTR const struct . size(2) Largest target is 6
		 -> lcd_1(BANK0[6]), 

    sp__memset	PTR void  size(2) Largest target is 0

    lcd_8bit_send_command@lcd	PTR const struct . size(2) Largest target is 10
		 -> lcd_2(BANK0[10]), 

    lcd_8bit_intialize@lcd	PTR const struct . size(2) Largest target is 10
		 -> lcd_2(BANK0[10]), 

    lcd_4bit_send_command@lcd	PTR const struct . size(2) Largest target is 6
		 -> lcd_1(BANK0[6]), 

    lcd_4bit_intialize@lcd	PTR const struct . size(2) Largest target is 6
		 -> lcd_1(BANK0[6]), 


Critical Paths under _main in COMRAM

    _ecu_layer_intialize->_lcd_4bit_intialize
    _ecu_layer_intialize->_lcd_8bit_intialize
    _lcd_8bit_intialize->_lcd_8bit_send_command
    _lcd_8bit_send_command->_lcd_8bit_send_enable_signal
    _lcd_8bit_send_enable_signal->_gpio_pin_write_logic
    _lcd_4bit_intialize->_lcd_4bit_send_command
    _lcd_4bit_send_command->_lcd_send_4bits
    _lcd_send_4bits->_gpio_pin_write_logic
    _lcd_4bit_send_enable_signal->_gpio_pin_write_logic
    _gpio_pin_intialize->_gpio_pin_write_logic

Critical Paths under _InterruptManager in COMRAM

    _InterruptManager->_RB4_ISR
    _InterruptManager->_RB5_ISR
    _InterruptManager->_RB6_ISR
    _InterruptManager->_RB7_ISR

Critical Paths under _main in BANK0

    _ecu_layer_intialize->_lcd_8bit_intialize

Critical Paths under _InterruptManager in BANK0

    None.

Critical Paths under _main in BANK1

    None.

Critical Paths under _InterruptManager in BANK1

    None.

Critical Paths under _main in BANK2

    None.

Critical Paths under _InterruptManager in BANK2

    None.

Critical Paths under _main in BANK3

    None.

Critical Paths under _InterruptManager in BANK3

    None.

Critical Paths under _main in BANK4

    None.

Critical Paths under _InterruptManager in BANK4

    None.

Critical Paths under _main in BANK5

    None.

Critical Paths under _InterruptManager in BANK5

    None.

Critical Paths under _main in BANK6

    None.

Critical Paths under _InterruptManager in BANK6

    None.

Critical Paths under _main in BANK7

    None.

Critical Paths under _InterruptManager in BANK7

    None.

Critical Paths under _main in BANK8

    None.

Critical Paths under _InterruptManager in BANK8

    None.

Critical Paths under _main in BANK9

    None.

Critical Paths under _InterruptManager in BANK9

    None.

Critical Paths under _main in BANK10

    None.

Critical Paths under _InterruptManager in BANK10

    None.

Critical Paths under _main in BANK11

    None.

Critical Paths under _InterruptManager in BANK11

    None.

Critical Paths under _main in BANK12

    None.

Critical Paths under _InterruptManager in BANK12

    None.

Critical Paths under _main in BANK13

    None.

Critical Paths under _InterruptManager in BANK13

    None.

Critical Paths under _main in BANK14

    None.

Critical Paths under _InterruptManager in BANK14

    None.

Critical Paths under _main in BANK15

    None.

Critical Paths under _InterruptManager in BANK15

    None.

Call Graph Tables:

 ---------------------------------------------------------------------------------
 (Depth) Function   	        Calls       Base Space   Used Autos Params    Refs
 ---------------------------------------------------------------------------------
 (0) _main                                                 1     1      0   54568
                        _Timer2_Init
              _application_intialize
 ---------------------------------------------------------------------------------
 (1) _application_intialize                                1     1      0   54329
                _ecu_layer_intialize
 ---------------------------------------------------------------------------------
 (2) _ecu_layer_intialize                                  1     1      0   54326
                 _lcd_4bit_intialize
                 _lcd_8bit_intialize
 ---------------------------------------------------------------------------------
 (3) _lcd_8bit_intialize                                   6     4      2   23660
                                             25 COMRAM     2     0      2
                                              0 BANK0      4     4      0
                 _gpio_pin_intialize
              _lcd_8bit_send_command
 ---------------------------------------------------------------------------------
 (4) _lcd_8bit_send_command                                9     6      3   14810
                                             16 COMRAM     9     6      3
               _gpio_pin_write_logic
        _lcd_8bit_send_enable_signal
 ---------------------------------------------------------------------------------
 (5) _lcd_8bit_send_enable_signal                          3     1      2    6119
                                             13 COMRAM     3     1      2
               _gpio_pin_write_logic
 ---------------------------------------------------------------------------------
 (3) _lcd_4bit_intialize                                   6     4      2   30657
                                             21 COMRAM     6     4      2
                 _gpio_pin_intialize
              _lcd_4bit_send_command
 ---------------------------------------------------------------------------------
 (4) _lcd_4bit_send_command                                4     1      3   21807
                                             17 COMRAM     4     1      3
               _gpio_pin_write_logic
        _lcd_4bit_send_enable_signal
                     _lcd_send_4bits
 ---------------------------------------------------------------------------------
 (5) _lcd_send_4bits                                       4     1      3    6851
                                             13 COMRAM     4     1      3
               _gpio_pin_write_logic
 ---------------------------------------------------------------------------------
 (5) _lcd_4bit_send_enable_signal                          3     1      2    6299
                                             13 COMRAM     3     1      2
               _gpio_pin_write_logic
 ---------------------------------------------------------------------------------
 (4) _gpio_pin_intialize                                   4     2      2    8182
                                             13 COMRAM     4     2      2
       _gpio_pin_direction_intialize
               _gpio_pin_write_logic
 ---------------------------------------------------------------------------------
 (6) _gpio_pin_write_logic                                10     7      3    5837
                                              3 COMRAM    10     7      3
 ---------------------------------------------------------------------------------
 (5) _gpio_pin_direction_intialize                         9     7      2     707
                                              3 COMRAM     9     7      2
 ---------------------------------------------------------------------------------
 (1) _Timer2_Init                                          4     2      2     233
                                              3 COMRAM     4     2      2
 ---------------------------------------------------------------------------------
 Estimated maximum stack depth 6
 ---------------------------------------------------------------------------------
 (Depth) Function   	        Calls       Base Space   Used Autos Params    Refs
 ---------------------------------------------------------------------------------
 (7) _InterruptManager                                     2     2      0     120
                                              1 COMRAM     2     2      0
                            _ADC_ISR
                           _CCP1_ISR
                           _CCP2_ISR
                           _INT0_ISR
                           _INT1_ISR
                           _INT2_ISR
                    _MSSP_I2C_BC_ISR
                       _MSSP_I2C_ISR
                            _RB4_ISR
                            _RB5_ISR
                            _RB6_ISR
                            _RB7_ISR
                           _TMR0_ISR
                           _TMR1_ISR
                           _TMR2_ISR
                           _TMR3_ISR
                       _USART_RX_ISR
                       _USART_TX_ISR
 ---------------------------------------------------------------------------------
 (8) _USART_TX_ISR                                         0     0      0       0
 ---------------------------------------------------------------------------------
 (8) _USART_RX_ISR                                         0     0      0       0
 ---------------------------------------------------------------------------------
 (8) _TMR3_ISR                                             0     0      0       0
 ---------------------------------------------------------------------------------
 (8) _TMR2_ISR                                             0     0      0       0
                                NULL *
    _Timer2_DefaultInterrruptHandler *
 ---------------------------------------------------------------------------------
 (9) _Timer2_DefaultInterrruptHandler                      0     0      0       0
 ---------------------------------------------------------------------------------
 (9) NULL(Fake)                                            0     0      0       0
 ---------------------------------------------------------------------------------
 (8) _TMR1_ISR                                             0     0      0       0
 ---------------------------------------------------------------------------------
 (8) _TMR0_ISR                                             0     0      0       0
 ---------------------------------------------------------------------------------
 (8) _RB7_ISR                                              1     1      0      30
                                              0 COMRAM     1     1      0
 ---------------------------------------------------------------------------------
 (8) _RB6_ISR                                              1     1      0      30
                                              0 COMRAM     1     1      0
 ---------------------------------------------------------------------------------
 (8) _RB5_ISR                                              1     1      0      30
                                              0 COMRAM     1     1      0
 ---------------------------------------------------------------------------------
 (8) _RB4_ISR                                              1     1      0      30
                                              0 COMRAM     1     1      0
 ---------------------------------------------------------------------------------
 (8) _MSSP_I2C_ISR                                         0     0      0       0
 ---------------------------------------------------------------------------------
 (8) _MSSP_I2C_BC_ISR                                      0     0      0       0
 ---------------------------------------------------------------------------------
 (8) _INT2_ISR                                             0     0      0       0
 ---------------------------------------------------------------------------------
 (8) _INT1_ISR                                             0     0      0       0
 ---------------------------------------------------------------------------------
 (8) _INT0_ISR                                             0     0      0       0
 ---------------------------------------------------------------------------------
 (8) _CCP2_ISR                                             0     0      0       0
 ---------------------------------------------------------------------------------
 (8) _CCP1_ISR                                             0     0      0       0
 ---------------------------------------------------------------------------------
 (8) _ADC_ISR                                              0     0      0       0
 ---------------------------------------------------------------------------------
 Estimated maximum stack depth 9
 ---------------------------------------------------------------------------------

 Call Graph Graphs:

 _main (ROOT)
   _Timer2_Init
   _application_intialize
     _ecu_layer_intialize
       _lcd_4bit_intialize
         _gpio_pin_intialize
           _gpio_pin_direction_intialize
           _gpio_pin_write_logic
         _lcd_4bit_send_command
           _gpio_pin_write_logic
           _lcd_4bit_send_enable_signal
             _gpio_pin_write_logic
           _lcd_send_4bits
             _gpio_pin_write_logic
       _lcd_8bit_intialize
         _gpio_pin_intialize
         _lcd_8bit_send_command
           _gpio_pin_write_logic
           _lcd_8bit_send_enable_signal
             _gpio_pin_write_logic

 _InterruptManager (ROOT)
   _ADC_ISR
   _CCP1_ISR
   _CCP2_ISR
   _INT0_ISR
   _INT1_ISR
   _INT2_ISR
   _MSSP_I2C_BC_ISR
   _MSSP_I2C_ISR
   _RB4_ISR
   _RB5_ISR
   _RB6_ISR
   _RB7_ISR
   _TMR0_ISR
   _TMR1_ISR
   _TMR2_ISR
     NULL(Fake) *
     _Timer2_DefaultInterrruptHandler *
   _TMR3_ISR
   _USART_RX_ISR
   _USART_TX_ISR

 Address spaces:
Name               Size   Autos  Total    Cost      Usage
BIGRAM             F7F      0       0      48        0.0%
EEDATA             400      0       0       0        0.0%
BITBANK14          100      0       0      32        0.0%
BANK14             100      0       0      33        0.0%
BITBANK13          100      0       0      30        0.0%
BANK13             100      0       0      31        0.0%
BITBANK12          100      0       0      28        0.0%
BANK12             100      0       0      29        0.0%
BITBANK11          100      0       0      26        0.0%
BANK11             100      0       0      27        0.0%
BITBANK10          100      0       0      24        0.0%
BANK10             100      0       0      25        0.0%
BITBANK9           100      0       0      22        0.0%
BANK9              100      0       0      23        0.0%
BITBANK8           100      0       0      20        0.0%
BANK8              100      0       0      21        0.0%
BITBANK7           100      0       0      18        0.0%
BANK7              100      0       0      19        0.0%
BITBANK6           100      0       0      16        0.0%
BANK6              100      0       0      17        0.0%
BITBANK5           100      0       0      14        0.0%
BANK5              100      0       0      15        0.0%
BITBANK4           100      0       0      12        0.0%
BANK4              100      0       0      13        0.0%
BITBANK3           100      0       0      10        0.0%
BANK3              100      0       0      11        0.0%
BITBANK2           100      0       0       8        0.0%
BANK2              100      0       0       9        0.0%
BITBANK1           100      0       0       6        0.0%
BANK1              100      0       0       7        0.0%
BITBANK15           80      0       0      34        0.0%
BANK15              80      0       0      35        0.0%
BITBANK0            80      0       0       4        0.0%
BANK0               80      4      28       5       31.2%
BITCOMRAM           7E      0       0       0        0.0%
COMRAM              7E     1B      7A       1       96.8%
BITBIGSFRhlhhhl     18      0       0      37        0.0%
BITBIGSFRhh          D      0       0      36        0.0%
BITBIGSFRlllhh       6      0       0      44        0.0%
BITBIGSFRhlhhhl      5      0       0      38        0.0%
BITBIGSFRllhllh      4      0       0      41        0.0%
BITBIGSFRllllh       4      0       0      45        0.0%
BITBIGSFRllhllh      4      0       0      42        0.0%
BITBIGSFRlllll       4      0       0      46        0.0%
BITBIGSFRllhllh      1      0       0      40        0.0%
BITBIGSFRhlhhhl      1      0       0      39        0.0%
BITBIGSFRllhlll      1      0       0      43        0.0%
BIGSFR               0      0       0     200        0.0%
BITSFR               0      0       0     200        0.0%
SFR                  0      0       0     200        0.0%
STACK                0      0       0       2        0.0%
NULL                 0      0       0       0        0.0%
ABS                  0      0      A2      47        0.0%
DATA                 0      0      A2       3        0.0%
CODE                 0      0       0       0        0.0%


Microchip Technology PIC18 Macro Assembler V2.41 build 20230208172133 
Symbol Table                                                                                   Sun Jul 23 00:30:51 2023

                               ??_InterruptManager 0049                                    ?_lcd_send_4bits 0055  
                                      _SSPSTATbits 0FC7                                                 l74 1A7A  
                                               l69 18DC                          _USART_FramingErrorHandler 0003  
                                              l121 1A08                                                l114 1688  
                                              l331 1CB2                                                l182 1BE6  
                                              l176 1B4E                                                l179 1C1C  
                                              l713 1AE6                                                l673 154E  
                                              l692 17B4                          _RB5_InterruptHandler_HIGH 0021  
                                  __end_of_ADC_ISR 1D92                __end_of_lcd_4bit_send_enable_signal 1C1E  
                      _lcd_4bit_send_enable_signal 1BE8                                led_initialize@F3048 0042  
                                              prod 0FF3                              relay_initialize@F3042 003E  
                                              tosl 0FFD                                                wreg 0FE8  
                      lcd_send_4bits@_data_command 0057                                    __end_of_RB4_ISR 1D1C  
                                  __end_of_RB5_ISR 1D02                                    __end_of_RB6_ISR 1CE8  
                                  __end_of_RB7_ISR 1CCE  _MSSP_I2C_Report_Receive_Overflow_InterruptHandler 002D  
                                             l1344 18F8                                               l1346 1978  
                                             l1571 1C78                                               l1572 1C78  
                                             l1577 1D6C                                               l5130 18F0  
                                             l6010 1B16                                               l5140 196C  
                                             l5132 18FA                                               l6020 1BFC  
                                             l6012 1B30                                               l6004 1AE8  
                                             l6100 17F4                                               l5142 196E  
                                             l5134 1958                                               l5126 18DE  
                                             l6022 1C04                                               l6006 1AE8  
                                             l6110 1816                                               l6030 1BB2  
                                             l5144 1970                                               l5136 195A  
                                             l5128 18DE                                               l6040 1A7C  
                                             l6024 1C1A                                               l6016 1BE8  
                                             l6008 1AFE                                               l6120 1868  
                                             l6112 1826                                               l6032 1BC6  
                                             l5146 1972                                               l5138 195C  
                                             l6050 1AE4                                               l6042 1A7C  
                                             l6018 1BE8                                               l6130 18B8  
                                             l6122 1878                                               l6114 1834  
                                             l6106 17F8                                               l6034 1BCE  
                                             l5148 1976                                               l6044 1A8E  
                                             l6060 1A24                                               l6132 18C8  
                                             l6124 1888                                               l6116 1844  
                                             l6108 1814                                               l6036 1BE4  
                                             l6028 1BB2                                               l6140 1556  
                                             l6046 1AB0                                               l6062 1A78  
                                             l6054 1A0A                                               l6126 1898  
                                             l6118 1862                                               l6134 18DA  
                                             l6070 1990                                               l6142 1568  
                                             l6222 1C9A                                               l6048 1AB8  
                                             l6056 1A0A                                               l6128 18A8  
                                             l6080 19AC                                               l6072 1998  
                                             l6160 15DA                                               l6152 1598  
                                             l6144 1570                                               l6224 1C9A  
                                             l6058 1A1C                                               l6082 19E6  
                                             l6074 19A8                                               l6066 197A  
                                             l6170 1632                                               l6162 15EA  
                                             l6154 15B4                                               l6146 1594  
                                             l6138 1550                                               l6226 1CA6  
                                             l6092 17B6                                               l6084 19E8  
                                             l6068 197E                                               l6172 1642  
                                             l6164 160C                                               l6156 15B8  
                                             l6180 1686                                               l6094 17BA  
                                             l6086 19F8                                               l6174 1652  
                                             l6166 1612                                               l6158 15C8  
                                             l6270 1D68                                               l6096 17CC  
                                             l6088 1A06                                               l6176 1662  
                                             l6168 1622                                               l6098 17D4  
                                             l6178 1672                                               l6268 1D68  
                                             l6800 179C                                               l6802 1536  
                                             l6750 1C5C                                               l5960 16A0  
                                             l6752 1C60                                               l6744 1C50  
                                             l5970 1788                                               l5962 16C2  
                                             l6754 1C64                                               l6746 1C50  
                                             l5980 140C                                               l5964 16CA  
                                             l5972 17B2                                               l5956 168A  
                                             l6756 1C68                                               l6748 1C54  
                                             l5990 14AE                                               l5982 1410  
                                             l5966 172C                                               l5958 168E  
                                             l6758 1C6C                                               l5984 1422  
                                             l5994 150A                                               l5986 1444  
                                             l5988 144C                                               l5996 154C  
                                             STR_1 1011                 lcd_8bit_send_command@l_pin_counter 0060  
                                             _LATA 0F89                                               _LATB 0F8A  
                                             _LATC 0F8B                                               _LATD 0F8C  
                                             _LATE 0F8D                                               u3360 18F0  
                                             u3361 18EC                                               u4710 1522  
                                             u4630 16A0                                               u4711 151C  
                                             u4631 169C                                               u5407 1BC8  
                                             u4720 1524                                               u4704 14CE  
                                             u4640 16C2                                               u4800 1826  
                                             u4705 14CA                                               u4641 16BE  
                                             u5417 182C                                               u4801 1822  
                                             u4730 1A8E                                               u4810 1568  
                                             u4731 1A8A                                               u5427 184A  
                                             u4811 1564                                               u4740 1AB0  
                                             u4820 15C8                                               u4741 1AAC  
                                             u5437 1864                                               u4821 15C4  
                                             u4670 1422                                               u4654 16EA  
                                             u4750 1A1C                                               u4671 141E  
                                             u4655 16E6                                               u5447 1BFE  
                                             u4751 1A18                                               u4680 1444  
                                             u4664 174C                                               u4760 1990  
                                             u4681 1440                                               u4665 1748  
                                             u4761 198C                                               u5377 15D0  
                                             u5387 15F2                                               u4780 19F8  
                                             u4781 19F4                                               u5397 160E  
                                             u4694 146C                                               u4790 17CC  
                                             u4774 19D6                                               u4695 1468  
                                             u4791 17C8                                               u4775 19D2  
                                             _TMR2 0FCC                            ??_application_intialize 0063  
                    ??_lcd_4bit_send_enable_signal 0057                           _RB4_InterruptHandler_LOW 0023  
                                             _main 1C50                                   __end_of_CCP1_ISR 1D8E  
                                 __end_of_CCP2_ISR 1D8A                           _RB7_InterruptHandler_LOW 0017  
                                             fsr2h 0FDA                                               indf2 0FDF  
                                             fsr1l 0FE1                                               fsr2l 0FD9  
                                             btemp 007B                                               prodl 0FF3  
                                             start 000E                      __end_of_lcd_8bit_send_command 1A0A  
                                     ___param_bank 0000                              _lcd_4bit_send_command 1A0A  
                             _gpio_pin_write_logic 168A                              lcd_4bit_intialize@lcd 005D  
                            lcd_4bit_intialize@ret 0062                                   __end_of_INT0_ISR 1D86  
                                 __end_of_INT1_ISR 1D82                                   __end_of_INT2_ISR 1D7E  
                                            ?_main 0048                                              _EEADR 0FA9  
                                            i2l544 1D88                                              i2l457 1D90  
                                            i2l539 1D8C                                              i2l933 1D84  
                                            i2l861 1D74                                              i2l943 1D7C  
                                            i2l938 1D80                                              i2l866 1D78  
                                            i2l954 1D1A                                              i2l965 1D00  
                                            i2l976 1CE6                                              i2l987 1CCC  
                                            _RCREG 0FAE                                relay_turn_off@F3052 003C  
                                            _TMR0H 0FD7                                              _TMR1H 0FCF  
                                            _TMR0L 0FD6                                              _TMR1L 0FCE  
                                            _TMR3H 0FB3                                              _TMR3L 0FB2  
                                            _SPBRG 0FAF                                              _PORTA 0F80  
                                            _PORTB 0F81                                              _PORTC 0F82  
                                            _PORTD 0F83                                              _PORTE 0F84  
                                            _TRISA 0F92                                              _TRISB 0F93  
                                            _TRISC 0F94                                              _TRISD 0F95  
                                            _TRISE 0F96                                              _TXREG 0FAD  
                                 __end_of_TMR0_ISR 1D68                                   __end_of_TMR1_ISR 1D5C  
                                 __end_of_TMR2_ISR 1C50                                   __end_of_TMR3_ISR 1D50  
                                            _lcd_1 0094                                              _lcd_2 008A  
                                            pclath 0FFA                                              pclatu 0FFB  
                                            tablat 0FF5                                              ttemp5 007C  
                                            ttemp6 007F                                              ttemp7 0083  
                                            status 0FD8                                              wtemp8 007C  
                                  __initialization 1B50                                       __end_of_main 1C80  
                            ?_gpio_pin_write_logic 004B                                          ??_ADC_ISR 0048  
                                    _lat_registers 0063                                             ??_main 0063  
                                    __activetblptr 0003                              _TMR3_InterruptHandler 0009  
                                 led_turn_on@F3053 0041                                          ??_RB4_ISR 0048  
                                        ??_RB5_ISR 0048                                          ??_RB6_ISR 0048  
                                        ??_RB7_ISR 0048                                             _ADRESH 0FC4  
                                           _EEADRH 0FAA                                             _ADRESL 0FC3  
                                           _EEDATA 0FA8                                             _CCPR1H 0FBF  
                                           _CCPR2H 0FBC                                             _CCPR1L 0FBE  
                                           _CCPR2L 0FBB                                             _EECON2 0FA7  
                                           i2l1200 13E0                                             i2l1203 1400  
                                           i2l1160 1040                                             i2l1170 114C  
                                           i2l1162 1060                                             i2l1316 1D5A  
                                           i2l1180 12A0                                             i2l1172 1190  
                                           i2l1164 1080                                             i2l1413 1D4E  
                                           i2l1246 1D66                                             i2l1190 1340  
                                           i2l1182 12C0                                             i2l1174 11D4  
                                           i2l1166 10C4                                             i2l1192 1360  
                                           i2l1184 12E0                                             i2l1176 1218  
                                           i2l1168 1108                                             i2l1194 1380  
                                           i2l1186 1300                                             i2l1178 125C  
                                           i2l1196 13A0                                             i2l1188 1320  
                                           i2l1198 13C0                                             i2l1368 1C4E  
                                           i2l1544 1D70                                             i2l1553 1D92  
                                           i2l2700 1D06                                             i2l1566 1D42  
                                           i2l2720 1D00                                             i2l2712 1CEA  
                                           i2l2800 1D62                                             i2l5120 1C1E  
                                           i2l2650 1D86                                             i2l2706 1D1A  
                                           i2l2714 1CEC                                             i2l2810 1D56  
                                           i2l5122 1C24                                             i2l2644 1D8A  
                                           i2l2740 1CB6                                             i2l5124 1C36  
                                           i2l2638 1D8E                                             i2l2734 1CE6  
                                           i2l2726 1CD0                                             i2l2742 1CB8  
                                           i2l2806 1D50                                             i2l2822 1D44  
                                           i2l2680 1D82                                             i2l2728 1CD2  
                                           i2l2808 1D52                                             i2l2824 1D46  
                                           i2l2832 1D6E                                             i2l2674 1D76  
                                           i2l2826 1D4A                                             i2l2692 1D7A  
                                           i2l2668 1D72                                             i2l2748 1CCC  
                                           i2l2686 1D7E                                             i2l5078 1D34  
                                           i2l2838 1D92                                             i2l2698 1D04  
                                           i2l2796 1D5C                                             i2l2798 1D5E  
                                           i2l5800 1132                                             i2l5810 1176  
                                           i2l5802 1142                                             i2l5820 11BA  
                                           i2l5812 1186                                             i2l5804 1146  
                                           i2l5830 11FE                                             i2l5822 11CA  
                                           i2l5814 118A                                             i2l5806 115A  
                                           i2l5840 1242                                             i2l5832 120E  
                                           i2l5824 11CE                                             i2l5816 119E  
                                           i2l5808 1168                                             i2l5850 1286  
                                           i2l5842 1252                                             i2l5834 1212  
                                           i2l5826 11E2                                             i2l5818 11AC  
                                           i2l5770 105C                                             i2l5762 1020  
                                           i2l5860 12CE                                             i2l5852 1296  
                                           i2l5844 1256                                             i2l5836 1226  
                                           i2l5828 11F0                                             i2l5780 10AA  
                                           i2l5772 106E                                             i2l5764 102E  
                                           i2l5870 131C                                             i2l5862 12DC  
                                           i2l5854 129A                                             i2l5846 126A  
                                           i2l5838 1234                                             i2l5790 10EE  
                                           i2l5782 10BA                                             i2l5774 107C  
                                           i2l5766 103C                                             i2l5880 136E  
                                           i2l5872 132E                                             i2l5864 12EE  
                                           i2l5856 12AE                                             i2l5848 1278  
                                           i2l5792 10FE                                             i2l5784 10BE  
                                           i2l5776 108E                                             i2l5768 104E  
                                           i2l5890 13BC                                             i2l5882 137C  
                                           i2l5874 133C                                             i2l5866 12FC  
                                           i2l5858 12BC                                             i2l5794 1102  
                                           i2l5786 10D2                                             i2l5778 109C  
                                           i2l5892 13CE                                             i2l5884 138E  
                                           i2l5876 134E                                             i2l5868 130E  
                                           i2l5796 1116                                             i2l5788 10E0  
                                           i2l5894 13DC                                             i2l5886 139C  
                                           i2l5878 135C                                             i2l5798 1124  
                                           i2l5896 13EE                                             i2l5888 13AE  
                                           i2l5898 13FC                                             _SPBRGH 0FB0  
                                           _SSPADD 0FC8                                             _SSPBUF 0FC9  
                                    ??_Timer2_Init 004D                             ?_lcd_4bit_send_command 0059  
                                           clear_0 1B96                                             clear_1 1BA2  
                                           isa$std 0001            gpio_pin_direction_intialize@_pin_config 004B  
                                        ?_CCP1_ISR 0048                                       __pdataCOMRAM 0063  
                                        ?_CCP2_ISR 0048                                  Timer2_Init@_timer 004B  
                                     __mediumconst 0000                                             tblptrh 0FF7  
                                           tblptrl 0FF6                                             tblptru 0FF8  
                                       __accesstop 0080                            __end_of__initialization 1BA8  
                                        ?_INT0_ISR 0048                                          ?_INT1_ISR 0048  
                                        ?_INT2_ISR 0048                                      ___rparam_used 0001  
                                 ??_lcd_send_4bits 0058                                  RB5_ISR@RB5_Source 0048  
                           ??_gpio_pin_write_logic 004E                                     __pcstackCOMRAM 0048  
                                     __pidataBANK0 1C80                                          ?_TMR0_ISR 0048  
                                        ?_TMR1_ISR 0048                                          ?_TMR2_ISR 0048  
                                        ?_TMR3_ISR 0048                                __end_of_Timer2_Init 197A  
                         lcd_4bit_send_command@lcd 0059                           lcd_4bit_send_command@ret 005C  
                               _lcd_8bit_intialize 1550                                         ??_CCP1_ISR 0048  
                                       ??_CCP2_ISR 0048                                ?_lcd_8bit_intialize 0061  
                                       __pbssBANK0 009A                              _INT0_InterruptHandler 002B  
                                       ??_INT0_ISR 0048                                         ??_INT1_ISR 0048  
                                       ??_INT2_ISR 0048                      __end_of_application_intialize 1D6E  
                             ??_lcd_8bit_intialize 00A4                    _USART_TxDefaultInterruptHandler 0007  
                                       ??_TMR0_ISR 0048                                         ??_TMR1_ISR 0048  
                                       ??_TMR2_ISR 0048                                         ??_TMR3_ISR 0048  
                                led_turn_off@F3058 0040                                            _ADC_ISR 1D8E  
                                RB7_ISR@RB7_Source 0048                                            _RB4_ISR 1D02  
                                          _RB5_ISR 1CE8                                            _RB6_ISR 1CCE  
                                          _RB7_ISR 1CB4                          _RB6_InterruptHandler_HIGH 001D  
                                    ?_MSSP_I2C_ISR 0048                               led_turn_toggle@F3063 003F  
                                          i2u40_40 1CFC                                            i2u40_41 1CF8  
                                          i2u41_40 1CE2                                            i2u41_41 1CDE  
                                          i2u42_40 1CC8                                            i2u42_41 1CC4  
                                          i2u39_40 1D16                                            i2u39_41 1D12  
              __end_of_lcd_8bit_send_enable_signal 1BE8                        _lcd_8bit_send_enable_signal 1BB2  
                                       _btn_values 1001                     lcd_8bit_send_enable_signal@lcd 0055  
                   lcd_8bit_send_enable_signal@ret 0057                                     _tris_registers 006D  
                         _RB6_InterruptHandler_LOW 001B                      ??_lcd_8bit_send_enable_signal 0057  
                                ??_MSSP_I2C_BC_ISR 0048                               _ADC_InterruptHandler 0039  
                                          __Hparam 0000                                        _Timer2_Init 18DE  
                                          __Lparam 0000                                _ecu_layer_intialize 1C9A  
                            _lcd_8bit_send_command 197A                                       __psmallconst 1000  
                       __end_of_gpio_pin_intialize 1AE8                                            __pcinit 1B50  
                                          __ramtop 1000                                            __ptext0 1C50  
                                          __ptext1 1D68                                            __ptext2 1C9A  
                                          __ptext3 1550                                            __ptext4 197A  
                                          __ptext5 1BB2                                            __ptext6 17B6  
                                          __ptext7 1A0A                                            __ptext8 1AE8  
                                          __ptext9 1BE8                                          _T0CONbits 0FD5  
                                        _T1CONbits 0FCD                                     ??_MSSP_I2C_ISR 0048  
                                        _T2CONbits 0FCA                                          _T3CONbits 0FB1  
                             ?_ecu_layer_intialize 0048              lcd_4bit_intialize@l_data_pins_counter 0061  
            lcd_8bit_intialize@l_data_pins_counter 00A6                                     __pintcode_body 1016  
                             end_of_initialization 1BA8                                  lcd_send_4bits@lcd 0055  
                                lcd_send_4bits@ret 0058                                            int_func 1016  
                       __end_of_lcd_4bit_intialize 18DE                            ??_lcd_4bit_send_command 005C  
                            gpio_pin_intialize@ret 0058                 fp__Timer2_DefaultInterrruptHandler 0000  
          __end_of_Timer2_DefaultInterrruptHandler 1D44                  ??_Timer2_DefaultInterrruptHandler 0048  
                 ?_Timer2_DefaultInterrruptHandler 0048                    _Timer2_DefaultInterrruptHandler 1D34  
                                        _RCSTAbits 0FAB                                            postdec1 0FE5  
                                          postdec2 0FDD                                         _timer2_obj 0043  
                                          postinc0 0FEE                                            postinc2 0FDE  
                            _INT1_InterruptHandler 0029                                          _PORTBbits 0F81  
                                 _InterruptManager 0008                      gpio_pin_intialize@_pin_config 0055  
                            ??_ecu_layer_intialize 0063               __end_of_gpio_pin_direction_intialize 1550  
                     _gpio_pin_direction_intialize 140C                                          _TRISCbits 0F94  
                                    ?_USART_RX_ISR 0048                                      ?_USART_TX_ISR 0048  
                                      _CCP1CONbits 0FBD                                        _CCP2CONbits 0FBA  
                                        _TXSTAbits 0FAC                                 relay_turn_on@F3047 003D  
                           ?_lcd_8bit_send_command 0058                      convert_uint16_to_string@F3198 009A  
                                      _BAUDCONbits 0FB8                                      __pidataCOMRAM 1D1C  
                                   _timer0_preload 0015                                     _timer1_preload 0011  
                                   _timer2_preload 003B                                start_initialization 1B50  
                                   _timer3_preload 000B                       ?_lcd_4bit_send_enable_signal 0055  
                    ?_gpio_pin_direction_intialize 004B                                     ??_USART_RX_ISR 0048  
                                   ??_USART_TX_ISR 0048                          _USART_OverrunErrorHandler 0001  
                             __end_of_MSSP_I2C_ISR 1D76                                        __pdataBANK0 0080  
                                         ?_ADC_ISR 0048                       lcd_4bit_send_command@command 005B  
                         lcd_8bit_send_command@lcd 0058                           lcd_8bit_send_command@ret 005F  
                                         ?_RB4_ISR 0048                                           ?_RB5_ISR 0048  
                                         ?_RB6_ISR 0048                                           ?_RB7_ISR 0048  
                                      __pbssCOMRAM 0001   _MSSP_I2C_Report_Write_Collision_InterruptHandler 002F  
                                    __pcstackBANK0 00A4                                    _MSSP_I2C_BC_ISR 1D76  
                            _INT2_InterruptHandler 0027                    _USART_RxDefaultInterruptHandler 0005  
                  gpio_pin_direction_intialize@ret 0053                              _TMR0_InterruptHandler 0013  
                                     ?_Timer2_Init 004B                              _application_intialize 1D68  
                                        __pintcode 0008                    gpio_pin_write_logic@_pin_config 004B  
                        gpio_pin_write_logic@logic 004D                                        __smallconst 1000  
                        _RB4_InterruptHandler_HIGH 0025                                           _CCP1_ISR 1D8A  
                                         _CCP2_ISR 1D86                          _RB7_InterruptHandler_HIGH 0019  
                               _gpio_pin_intialize 1A7C                     ??_gpio_pin_direction_intialize 004D  
                         _RB5_InterruptHandler_LOW 001F                                           _INT0_ISR 1D82  
                                         _INT1_ISR 1D7E                                           _INT2_ISR 1D7A  
                                         _RB4_Flag 007A                                           _RB5_Flag 0079  
                                         _RB6_Flag 0078                                           _RB7_Flag 0077  
                                RB4_ISR@RB4_Source 0048                                ?_gpio_pin_intialize 0055  
                         __end_of_InterruptManager 140C                                           _PIE1bits 0F9D  
                                         _PIE2bits 0FA0                      __end_of_lcd_4bit_send_command 1A7C  
                                         i2u410_40 109C                                           i2u410_41 1098  
                                         i2u411_40 10AA                                           i2u403_40 102E  
                                         i2u411_41 10A6                                           i2u403_41 102A  
                                         i2u420_40 1142                                           i2u412_40 10BA  
                                         i2u404_40 103C                                           i2u420_41 113E  
                                         i2u412_41 10B6                                           i2u404_41 1038  
                                         i2u421_40 115A                                           i2u413_40 10D2  
                                         i2u405_40 104E                                           i2u421_41 1156  
                                         i2u413_41 10CE                                           i2u405_41 104A  
                                         i2u334_40 1C36                                           i2u430_40 11F0  
                                         i2u422_40 1168                                           i2u414_40 10E0  
                                         i2u406_40 105C                                           i2u334_41 1C32  
                                         i2u430_41 11EC                                           i2u422_41 1164  
                                         i2u414_41 10DC                                           i2u406_41 1058  
                                         i2u431_40 11FE                                           i2u423_40 1176  
                                         i2u415_40 10EE                                           i2u407_40 106E  
                                         i2u431_41 11FA                                           i2u423_41 1172  
                                         i2u415_41 10EA                                           i2u407_41 106A  
                                         i2u335_48 1C3C                                           i2u440_40 1296  
                                         i2u432_40 120E                                           i2u424_40 1186  
                                         i2u416_40 10FE                                           i2u408_40 107C  
                                         i2u335_49 1C4E                                           i2u440_41 1292  
                                         i2u432_41 120A                                           i2u424_41 1182  
                                         i2u416_41 10FA                                           i2u408_41 1078  
                                         i2u441_40 12AE                                           i2u433_40 1226  
                                         i2u425_40 119E                                           i2u417_40 1116  
                                         i2u409_40 108E                                           i2u441_41 12AA  
                                         i2u433_41 1222                                           i2u425_41 119A  
                                         i2u417_41 1112                                           i2u409_41 108A  
                                         _PIR1bits 0F9E                                           i2u450_40 133C  
                                         i2u442_40 12BC                                           i2u434_40 1234  
                                         i2u426_40 11AC                                           i2u418_40 1124  
                                         i2u450_41 1338                                           i2u442_41 12B8  
                                         i2u434_41 1230                                           i2u426_41 11A8  
                                         i2u418_41 1120                                           i2u451_40 134E  
                                         i2u443_40 12CE                                           i2u435_40 1242  
                                         i2u427_40 11BA                                           i2u419_40 1132  
                                         i2u451_41 134A                                           i2u443_41 12CA  
                                         i2u435_41 123E                                           i2u427_41 11B6  
                                         i2u419_41 112E                                           _PIR2bits 0FA1  
                                         i2u460_40 13DC                                           i2u452_40 135C  
                                         i2u444_40 12DC                                           i2u436_40 1252  
                                         i2u428_40 11CA                                           i2u460_41 13D8  
                                         i2u452_41 1358                                           i2u444_41 12D8  
                                         i2u436_41 124E                                           i2u428_41 11C6  
                                         i2u461_40 13EE                                           i2u453_40 136E  
                                         i2u445_40 12EE                                           i2u437_40 126A  
                                         i2u429_40 11E2                                           i2u461_41 13EA  
                                         i2u453_41 136A                                           i2u445_41 12EA  
                                         i2u437_41 1266                                           i2u429_41 11DE  
                                         i2u462_40 13FC                                           i2u454_40 137C  
                                         i2u446_40 12FC                                           i2u438_40 1278  
                                         i2u462_41 13F8                                           i2u454_41 1378  
                                         i2u446_41 12F8                                           i2u438_41 1274  
                                         i2u455_40 138E                                           i2u447_40 130E  
                                         i2u439_40 1286                                           i2u455_41 138A  
                                         i2u447_41 130A                                           i2u439_41 1282  
                                         i2u456_40 139C                                           i2u448_40 131C  
                                         i2u456_41 1398                                           i2u448_41 1318  
                                         i2u457_40 13AE                                           i2u449_40 132E  
                                         i2u457_41 13AA                                           i2u449_41 132A  
                                         i2u458_40 13BC                                           i2u458_41 13B8  
                                         i2u459_40 13CE                                           i2u459_41 13CA  
                                         _TMR0_ISR 1D5C                                           _TMR1_ISR 1D50  
                                         _TMR2_ISR 1C1E                                           _TMR3_ISR 1D44  
                             __end_of_USART_RX_ISR 1D94                              lcd_8bit_intialize@lcd 0061  
                             __end_of_USART_TX_ISR 1D72                                 _lcd_4bit_intialize 17B6  
                            lcd_8bit_intialize@ret 00A7                                         _ADCON0bits 0FC2  
                                       _ADCON1bits 0FC1                                         _ADCON2bits 0FC0  
                          __end_of_MSSP_I2C_BC_ISR 1D7A                               ??_gpio_pin_intialize 0057  
                              ?_lcd_4bit_intialize 005D                   _MSSP_I2C_DefaultInterruptHandler 0031  
                          gpio_pin_write_logic@ret 0054                                        _INTCON2bits 0FF1  
                                      _INTCON3bits 0FF0                                          copy_data0 1B64  
                                        copy_data1 1B84                            ??_lcd_8bit_send_command 005B  
                                       _EECON1bits 0FA6                             ?_application_intialize 0048  
                             ??_lcd_4bit_intialize 005F                                           __Hrparam 0000  
                                         __Lrparam 0000                                  RB6_ISR@RB6_Source 0048  
                            _CCP1_InterruptHandler 0037                        __end_of_ecu_layer_intialize 1CB4  
                               __end_of_btn_values 1011                              _TMR1_InterruptHandler 000F  
                                     _MSSP_I2C_ISR 1D72                                           __ptext10 1A7C  
                                         __ptext11 168A                                           __ptext20 1D50  
                                         __ptext12 140C                                           __ptext21 1D5C  
                                         __ptext13 18DE                                           __ptext30 1D82  
                                         __ptext22 1CB4                                           __ptext31 1D86  
                                         __ptext23 1CCE                                           __ptext15 1D6E  
                                         __ptext32 1D8A                                           __ptext24 1CE8  
                                         __ptext16 1D92                                           __ptext33 1D8E  
                                         __ptext25 1D02                                           __ptext17 1D44  
                                         __ptext34 0000                                           __ptext26 1D72  
                                         __ptext18 1C1E                                           __ptext27 1D76  
                                         __ptext19 1D34                                           __ptext28 1D7A  
                                         __ptext29 1D7E                                           isa$xinst 0000  
                                         int$flags 007B                                     _lcd_send_4bits 1AE8  
                                 ?_MSSP_I2C_BC_ISR 0048                                         _INTCONbits 0FF2  
                                   Timer2_Init@ret 004E                       __end_of_gpio_pin_write_logic 17B6  
                     ?_lcd_8bit_send_enable_signal 0055                                           intlevel2 0000  
                   lcd_4bit_send_enable_signal@lcd 0055                     lcd_4bit_send_enable_signal@ret 0057  
                           __end_of_lcd_send_4bits 1B50                                        _timer2_flag 00A0  
                                   _port_registers 0080                                        _SSPCON1bits 0FC6  
                                      _SSPCON2bits 0FC5                    CCP_Set_Compare_Mode_Value@F3106 0033  
                            _CCP2_InterruptHandler 0035                                       _USART_RX_ISR 1D92  
                                     _USART_TX_ISR 1D6E                       lcd_8bit_send_command@command 005A  
                            _TMR2_InterruptHandler 000D                                  ?_InterruptManager 0048  
                       __end_of_lcd_8bit_intialize 168A  
